
test_glcd2.elf:     file format elf32-avr

Sections:
Idx Name          Size      VMA       LMA       File off  Algn
  0 .text         00005802  00000000  00000000  00000074  2**1
                  CONTENTS, ALLOC, LOAD, READONLY, CODE
  1 .bss          00000082  00800060  00800060  00005876  2**0
                  ALLOC
  2 .debug_aranges 00000020  00000000  00000000  00005876  2**0
                  CONTENTS, READONLY, DEBUGGING
  3 .debug_pubnames 0000052d  00000000  00000000  00005896  2**0
                  CONTENTS, READONLY, DEBUGGING
  4 .debug_info   00002767  00000000  00000000  00005dc3  2**0
                  CONTENTS, READONLY, DEBUGGING
  5 .debug_abbrev 000003e3  00000000  00000000  0000852a  2**0
                  CONTENTS, READONLY, DEBUGGING
  6 .debug_line   00002ec0  00000000  00000000  0000890d  2**0
                  CONTENTS, READONLY, DEBUGGING
  7 .debug_frame  000002e0  00000000  00000000  0000b7d0  2**2
                  CONTENTS, READONLY, DEBUGGING
  8 .debug_str    0000055c  00000000  00000000  0000bab0  2**0
                  CONTENTS, READONLY, DEBUGGING
  9 .debug_loc    00001c33  00000000  00000000  0000c00c  2**0
                  CONTENTS, READONLY, DEBUGGING
 10 .debug_ranges 000001f8  00000000  00000000  0000dc3f  2**0
                  CONTENTS, READONLY, DEBUGGING

Disassembly of section .text:

00000000 <__vectors>:
       0:	0c 94 90 09 	jmp	0x1320	; 0x1320 <__ctors_end>
       4:	0c 94 a2 09 	jmp	0x1344	; 0x1344 <__bad_interrupt>
       8:	0c 94 a2 09 	jmp	0x1344	; 0x1344 <__bad_interrupt>
       c:	0c 94 a2 09 	jmp	0x1344	; 0x1344 <__bad_interrupt>
      10:	0c 94 a2 09 	jmp	0x1344	; 0x1344 <__bad_interrupt>
      14:	0c 94 a2 09 	jmp	0x1344	; 0x1344 <__bad_interrupt>
      18:	0c 94 a2 09 	jmp	0x1344	; 0x1344 <__bad_interrupt>
      1c:	0c 94 a2 09 	jmp	0x1344	; 0x1344 <__bad_interrupt>
      20:	0c 94 a2 09 	jmp	0x1344	; 0x1344 <__bad_interrupt>
      24:	0c 94 a2 09 	jmp	0x1344	; 0x1344 <__bad_interrupt>
      28:	0c 94 a2 09 	jmp	0x1344	; 0x1344 <__bad_interrupt>
      2c:	0c 94 a2 09 	jmp	0x1344	; 0x1344 <__bad_interrupt>
      30:	0c 94 a2 09 	jmp	0x1344	; 0x1344 <__bad_interrupt>
      34:	0c 94 a2 09 	jmp	0x1344	; 0x1344 <__bad_interrupt>
      38:	0c 94 a2 09 	jmp	0x1344	; 0x1344 <__bad_interrupt>
      3c:	0c 94 a2 09 	jmp	0x1344	; 0x1344 <__bad_interrupt>
      40:	0c 94 a2 09 	jmp	0x1344	; 0x1344 <__bad_interrupt>
      44:	0c 94 a2 09 	jmp	0x1344	; 0x1344 <__bad_interrupt>
      48:	0c 94 a2 09 	jmp	0x1344	; 0x1344 <__bad_interrupt>
      4c:	0c 94 a2 09 	jmp	0x1344	; 0x1344 <__bad_interrupt>
      50:	0c 94 a2 09 	jmp	0x1344	; 0x1344 <__bad_interrupt>

00000054 <__c.2876>:
      54:	48 53 33 2d 00                                      HS3-.

00000059 <__c.2874>:
      59:	48 53 32 2d 00                                      HS2-.

0000005e <__c.2872>:
      5e:	48 53 31 2d 00                                      HS1-.

00000063 <__c.2870>:
      63:	35 2e 20 48 69 67 68 20 53 63 6f 72 65 73 00        5. High Scores.

00000072 <__c.2868>:
      72:	31 2e 20 52 65 73 74 61 72 74 00                    1. Restart.

0000007d <__c.2866>:
      7d:	50 72 65 73 73 00                                   Press.

00000083 <IMAGE3>:
      83:	ff 01 fd 05 05 05 05 fd 01 01 f9 09 09 09 09 09     ................
      93:	f9 09 09 09 09 09 09 09 09 09 09 09 09 f9 09 09     ................
      a3:	09 09 09 09 09 09 09 09 09 09 f9 09 09 09 09 09     ................
      b3:	09 f9 81 81 81 81 81 81 81 81 81 81 81 81 81 81     ................
      c3:	81 81 81 81 81 81 f9 09 09 09 09 09 f9 09 09 09     ................
      d3:	09 09 39 09 09 09 09 09 09 f9 09 09 09 09 09 09     ..9.............
      e3:	09 79 09 09 09 09 09 09 09 09 09 09 09 f9 01 01     .y..............
      f3:	01 ff 00 00 00 ff 01 01 01 01 01 01 01 01 01 ff     ................
     103:	ff 00 ff 00 00 00 00 ff 80 80 ff 00 00 00 00 00     ................
     113:	f0 00 00 00 00 00 ff 10 10 10 10 10 10 1f 00 00     ................
     123:	00 00 00 ff 00 00 00 00 00 00 ff 00 00 00 00 00     ................
     133:	00 f0 10 10 10 10 10 10 10 10 10 10 10 10 10 10     ................
     143:	10 10 10 10 10 10 f0 00 00 00 00 00 0f 00 00 00     ................
     153:	00 00 fc 40 40 40 40 40 40 c3 00 00 00 00 00 00     ...@@@@@@.......
     163:	00 f8 00 00 00 00 00 ff 00 00 00 00 00 ff 00 00     ................
     173:	00 ff 00 00 00 ff 00 00 00 00 00 00 00 00 00 ff     ................
     183:	ff 00 1f 10 10 10 10 10 10 10 f0 00 00 00 00 00     ................
     193:	ff 00 00 00 00 00 7f 00 00 00 00 00 00 fe 08 08     ................
     1a3:	08 08 08 3f 00 00 00 00 00 00 3f 00 00 00 00 00     ...?......?.....
     1b3:	00 ff 00 00 00 00 00 00 00 f8 08 08 08 08 08 08     ................
     1c3:	08 08 08 08 08 08 0f 00 00 00 00 00 ff 02 02 02     ................
     1d3:	02 02 3f 00 00 00 00 00 00 7f 00 00 00 00 00 00     ..?.............
     1e3:	00 ff 01 01 01 01 01 3f 00 00 00 00 00 ff 00 00     .......?........
     1f3:	00 ff 00 00 00 ff 00 00 00 00 00 00 00 00 00 ff     ................
     203:	ff 00 00 00 00 00 00 00 00 00 0f 08 08 08 08 08     ................
     213:	0f 08 08 08 08 08 08 08 08 08 08 08 08 0f 08 08     ................
     223:	08 08 08 0c 08 08 08 08 08 08 0c 08 08 08 08 08     ................
     233:	08 0f 00 00 00 00 00 00 00 ff 00 00 00 00 00 ff     ................
     243:	01 01 01 01 01 01 0f 08 08 08 08 08 0f 08 08 08     ................
     253:	08 08 0c 08 08 08 08 08 08 08 08 08 08 08 08 08     ................
     263:	08 0f 08 08 08 08 08 0c 08 08 08 08 08 0f 00 00     ................
     273:	00 ff 00 00 00 ff 00 00 00 00 00 00 00 00 00 ff     ................
     283:	ff 00 00 00 00 00 00 00 00 00 f0 10 10 10 10 10     ................
     293:	f0 10 10 10 10 10 f0 10 10 10 10 10 10 10 10 10     ................
     2a3:	10 10 10 10 10 10 10 10 10 10 f0 10 10 10 10 10     ................
     2b3:	10 30 20 20 20 20 20 20 20 3f 00 00 00 00 00 ff     .0       ?......
     2c3:	00 00 00 00 00 00 f0 10 10 10 10 10 10 10 10 10     ................
     2d3:	10 10 f0 10 10 10 10 10 10 f0 10 10 10 10 10 10     ................
     2e3:	10 30 10 10 10 10 10 10 10 10 10 10 10 f0 00 00     .0..............
     2f3:	00 ff 00 00 00 ff 00 00 00 00 00 00 00 00 00 ff     ................
     303:	ff 00 00 00 00 00 00 00 00 00 ff 00 00 00 00 00     ................
     313:	f0 00 00 00 00 00 3f 20 20 20 20 20 fe 00 00 00     ......?     ....
     323:	00 00 00 fe 00 00 00 00 00 00 0f 00 00 00 00 00     ................
     333:	00 fc 04 04 04 04 04 04 04 04 04 04 04 04 04 07     ................
     343:	00 00 00 00 00 00 ff 10 10 10 10 10 fe 00 00 00     ................
     353:	00 00 3f 00 00 00 00 00 00 ff 80 80 80 80 80 80     ..?.............
     363:	80 fc 04 04 04 04 04 fe 00 00 00 00 00 ff 00 00     ................
     373:	00 ff 00 00 00 ff 00 00 00 00 00 00 00 00 00 ff     ................
     383:	ff 00 00 00 00 00 00 00 00 00 ff 00 00 00 00 00     ................
     393:	ff 20 20 20 20 20 fc 00 00 00 00 00 0f 00 00 00     .     ..........
     3a3:	00 00 00 ff 02 02 02 02 02 02 ff 00 00 00 00 00     ................
     3b3:	00 e1 21 21 21 21 21 21 21 21 21 21 21 21 21 21     ..!!!!!!!!!!!!!!
     3c3:	21 21 21 21 21 21 e1 00 00 00 00 00 ff 00 00 00     !!!!!!..........
     3d3:	00 00 fc 00 00 00 00 00 00 ff 00 00 00 00 00 00     ................
     3e3:	00 f0 00 00 00 00 00 ff 00 00 00 00 00 0f 08 08     ................
     3f3:	08 0f 00 00 00 ff 00 00 00 00 00 00 00 00 00 ff     ................
     403:	ff 80 80 80 80 80 80 80 80 80 9f 90 90 90 90 90     ................
     413:	90 90 90 90 90 90 9f 90 90 90 90 90 9f 90 90 90     ................
     423:	90 90 90 9f 90 90 90 90 90 90 90 90 90 90 90 90     ................
     433:	90 9f 80 80 80 80 80 80 80 80 80 80 80 80 80 80     ................
     443:	80 80 80 80 80 80 9f 90 90 90 90 90 90 90 90 90     ................
     453:	90 90 9f 90 90 90 90 90 90 90 90 90 90 90 90 90     ................
     463:	90 9f 90 90 90 90 90 90 90 90 90 90 90 9f 81 81     ................
     473:	81 ff 00 00 00 ff 80 80 80 80 80 80 80 80 80 ff     ................

00000483 <IMAGE2>:
     483:	00 00 ff 01 01 01 01 01 01 ff 01 01 01 01 01 01     ................
     493:	e1 01 01 01 01 01 01 ff 01 01 01 01 01 01 01 01     ................
     4a3:	01 01 01 01 01 01 01 01 01 01 01 ff 01 01 01 01     ................
     4b3:	01 ff 01 01 01 01 01 01 e1 01 01 01 01 01 01 ff     ................
     4c3:	01 01 01 01 01 01 ff ff ff 01 01 01 01 01 01 e1     ................
     4d3:	01 01 01 01 01 01 ff 21 21 21 21 21 21 ff 01 01     .......!!!!!!...
     4e3:	01 01 01 01 e1 01 01 01 01 01 01 ff 01 01 01 01     ................
     4f3:	01 01 01 ff 00 00 ff 01 01 01 01 01 01 01 ff 00     ................
     503:	00 00 ff 00 00 00 00 00 00 ff 00 00 00 00 00 00     ................
     513:	ff 08 08 08 08 08 08 ff 00 00 00 00 00 00 00 00     ................
     523:	00 00 00 00 fc 00 00 00 00 00 00 ff 00 00 00 00     ................
     533:	00 ff 00 00 00 00 00 00 ff 00 00 00 00 00 00 ff     ................
     543:	00 00 00 00 00 00 ff 0f ff 00 00 00 00 00 00 ff     ................
     553:	80 80 80 80 80 80 87 00 00 00 00 00 00 ff 00 00     ................
     563:	00 00 00 00 ff 00 00 00 00 00 00 ff 00 00 00 00     ................
     573:	00 00 00 ff 00 00 ff 00 00 00 00 00 00 00 ff 00     ................
     583:	00 00 ff 00 00 00 00 00 00 ff 00 00 00 00 00 00     ................
     593:	ff 00 00 00 00 00 00 ff 00 08 08 08 08 08 08 08     ................
     5a3:	08 08 08 00 ff 00 00 00 00 00 00 ff 01 01 01 01     ................
     5b3:	01 0f 00 00 00 00 00 00 ff 00 00 00 00 00 00 ff     ................
     5c3:	00 00 00 00 00 00 ff 00 ff 00 00 00 00 00 00 ff     ................
     5d3:	00 00 00 00 00 00 ff 00 00 00 00 00 00 0f 00 00     ................
     5e3:	00 00 00 00 ff 00 00 00 00 00 00 c3 00 00 00 00     ................
     5f3:	00 00 00 ff 00 00 ff 00 00 00 00 00 00 00 ff 00     ................
     603:	00 00 ff 80 80 80 80 80 80 87 00 00 00 00 00 00     ................
     613:	ff 00 00 00 00 00 00 0f 00 00 00 00 00 00 00 00     ................
     623:	00 00 00 00 ff 80 80 80 80 80 80 87 80 80 80 80     ................
     633:	80 ff 00 00 00 00 00 00 ff 00 00 00 00 00 00 0f     ................
     643:	00 00 00 00 00 00 01 00 01 00 00 00 00 00 00 ff     ................
     653:	00 00 00 00 00 00 ff 80 80 80 80 80 80 ff 00 00     ................
     663:	00 00 00 00 ff 04 04 04 04 04 04 ff 00 00 00 00     ................
     673:	00 00 00 ff 00 00 ff 00 00 00 00 00 00 00 ff 00     ................
     683:	00 00 ff 00 00 00 00 00 00 ff 00 00 00 00 00 00     ................
     693:	ff 00 00 00 00 00 00 ff 00 00 00 00 00 00 00 00     ................
     6a3:	00 00 00 00 ff 00 00 00 00 00 00 00 00 00 00 00     ................
     6b3:	00 ff 00 00 00 00 00 00 ff 00 00 00 00 00 00 ff     ................
	...
     6cf:	00 00 00 ff 00 00 00 00 00 00 ff 00 00 00 00 00     ................
     6df:	00 ff 04 04 04 04 04 04 ff 00 00 00 00 00 00 ff     ................
     6ef:	00 00 00 00 00 00 00 ff 00 00 ff 00 00 00 00 00     ................
     6ff:	00 00 ff 00 00 00 ff 00 00 00 00 00 00 ff 00 00     ................
     70f:	00 00 00 00 ff 00 00 00 00 00 00 ff 00 00 00 00     ................
	...
     727:	ff 00 00 00 00 00 00 00 00 00 00 00 00 0f 01 01     ................
     737:	01 01 01 01 ff 00 00 00 00 00 00 ff 00 00 00 00     ................
     747:	00 00 fe 00 fe 00 00 00 00 00 00 ff 00 00 00 00     ................
     757:	00 00 ff 00 00 00 00 00 00 f0 00 00 00 00 00 00     ................
     767:	ff 00 00 00 00 00 00 ff 00 00 00 00 00 00 00 ff     ................
     777:	00 00 ff 00 00 00 00 00 00 00 ff 00 00 00 ff 00     ................
     787:	00 00 00 00 00 ff 00 00 00 00 00 00 0f 00 00 00     ................
     797:	00 00 00 ff 00 80 00 00 00 00 00 00 00 00 80 00     ................
     7a7:	ff 00 00 00 00 00 00 00 00 00 00 00 00 ff 00 00     ................
     7b7:	00 00 00 00 ff 00 00 00 00 00 00 ff 00 00 00 00     ................
     7c7:	00 00 ff e0 ff 00 00 00 00 00 00 ff 01 01 01 01     ................
     7d7:	01 01 e1 00 00 00 00 00 00 ff 00 00 00 00 00 00     ................
     7e7:	ff 01 01 01 01 01 01 ff 00 00 00 00 00 00 00 ff     ................
     7f7:	00 00 ff 00 00 00 00 00 00 00 ff 00 00 00 ff 80     ................
     807:	80 80 80 80 80 87 80 80 80 80 80 80 ff 80 80 80     ................
     817:	80 80 80 ff 80 bf a0 a0 a0 a0 a0 a0 a0 a0 bf 80     ................
     827:	ff 80 80 80 80 80 80 80 80 80 80 80 80 ff 80 80     ................
     837:	80 80 80 80 87 84 84 84 84 84 84 87 80 80 80 80     ................
     847:	80 80 ff ff ff 80 80 80 80 80 80 87 80 80 80 80     ................
     857:	80 80 ff 84 84 84 84 84 84 ff 80 80 80 80 80 80     ................
     867:	ff 80 80 80 80 80 80 ff 80 80 80 80 80 80 80 f0     ................
     877:	00 00 ff 80 80 80 80 80 80 80 ff 00                 ............

00000883 <IMAGE>:
	...
     88b:	ff 00 00 00 00 ff 01 01 01 01 01 01 e1 21 21 21     .............!!!
     89b:	21 21 21 e1 01 01 01 01 01 01 e1 21 21 21 21 21     !!!........!!!!!
     8ab:	21 e1 01 01 01 01 01 01 e1 01 01 01 01 01 01 ff     !...............
     8bb:	01 01 01 01 01 01 e1 21 21 21 21 21 21 e1 21 21     .......!!!!!!.!!
     8cb:	21 21 21 21 21 21 21 21 21 21 21 e1 01 01 01 01     !!!!!!!!!!!.....
     8db:	01 01 ff 01 01 01 01 01 01 ff 01 01 01 01 01 01     ................
     8eb:	ff 01 01 01 01 01 01 e1 01 01 01 01 01 01 ff 01     ................
     8fb:	01 01 01 01 ff 01 01 01 00 00 00 00 00 00 00 00     ................
     90b:	ff 00 00 00 00 f0 00 00 00 00 00 00 ff 00 00 00     ................
     91b:	00 00 00 ff 00 00 00 00 00 00 ff 00 00 00 00 00     ................
     92b:	00 ff 00 00 00 00 00 00 ff 00 00 00 00 00 00 ff     ................
     93b:	00 00 00 00 00 00 ff 00 00 00 00 00 00 0f 00 00     ................
     94b:	00 00 00 00 fe 00 00 00 00 00 00 ff 00 00 00 00     ................
     95b:	00 00 ff 00 00 00 00 00 00 0f 00 00 00 00 00 00     ................
     96b:	ff 00 00 00 00 00 00 ff 00 00 00 00 00 00 0f 00     ................
     97b:	00 00 00 00 ff 00 00 00 00 00 00 00 00 00 00 00     ................
     98b:	ff 00 00 00 00 ff 80 80 80 80 80 80 ff 00 00 00     ................
     99b:	00 00 00 ff 00 00 00 00 00 00 f0 80 80 80 80 80     ................
     9ab:	80 ff 00 00 00 00 00 00 ff 00 00 00 00 00 00 ff     ................
     9bb:	00 00 00 00 00 00 ff 00 00 00 00 00 00 ff 00 00     ................
     9cb:	00 00 00 00 ff 00 00 00 00 00 00 ff 00 00 00 00     ................
     9db:	00 00 ff 00 00 00 00 00 00 ff 00 00 00 00 00 00     ................
     9eb:	ff 01 01 01 01 01 01 ff 01 01 01 01 01 01 ff 00     ................
     9fb:	00 00 00 00 ff 00 00 00 00 00 00 00 00 00 00 00     ................
     a0b:	ff 00 00 00 00 ff 00 00 00 00 00 00 ff 00 00 00     ................
     a1b:	00 00 00 ff 00 00 00 00 00 00 ff 00 00 00 00 00     ................
     a2b:	00 ff 00 00 00 00 00 00 ff 00 00 00 00 00 00 ff     ................
     a3b:	80 80 80 80 80 80 ff 00 00 00 00 00 00 ff 00 00     ................
     a4b:	00 00 00 00 ff 00 00 00 00 00 00 ff 00 00 00 00     ................
     a5b:	00 00 f0 00 00 00 00 00 00 ff 00 00 00 00 00 00     ................
     a6b:	ff 00 00 00 00 00 00 f0 00 00 00 00 00 00 ff 00     ................
     a7b:	00 00 00 00 ff 00 00 00 00 00 00 00 00 00 00 00     ................
     a8b:	ff 00 00 00 00 ff 00 00 00 00 00 00 ff 00 00 00     ................
     a9b:	00 00 00 ff 80 80 80 80 80 80 ff 00 00 00 00 00     ................
     aab:	00 0f 00 00 00 00 00 00 ff 00 00 00 00 00 00 ff     ................
     abb:	00 00 00 00 00 00 f0 00 00 00 00 00 00 ff 00 00     ................
     acb:	00 00 00 00 ff 00 00 00 00 00 00 ff 00 00 00 00     ................
     adb:	00 00 ff 01 01 01 01 01 01 01 00 00 00 00 00 00     ................
     aeb:	ff 00 00 00 00 00 00 ff 00 00 00 00 00 00 ff 00     ................
     afb:	00 00 00 00 ff 00 00 00 00 00 00 00 00 00 00 00     ................
     b0b:	ff 00 00 00 00 ff 00 00 00 00 00 00 ff 00 00 00     ................
     b1b:	00 00 00 f0 00 00 00 00 00 00 ff 00 00 00 00 00     ................
     b2b:	00 ff 00 00 00 00 00 00 ff 00 00 00 00 00 00 ff     ................
     b3b:	00 00 00 00 00 00 ff 00 00 00 00 00 00 ff 00 00     ................
     b4b:	00 00 00 00 ff 10 10 10 10 10 10 f0 00 00 00 00     ................
     b5b:	00 00 0f 01 01 01 01 01 01 ff 00 00 00 00 00 00     ................
     b6b:	e1 21 21 21 21 21 21 e1 00 00 00 00 00 00 e1 00     .!!!!!!.........
     b7b:	00 00 00 00 ff 00 00 00 00 00 00 00 00 00 00 00     ................
     b8b:	ff 00 00 00 00 ff 00 00 00 00 00 00 ff 00 00 00     ................
     b9b:	00 00 00 ff 00 00 00 00 00 00 f0 10 10 10 10 10     ................
     bab:	10 ff 00 00 00 00 00 00 f0 00 00 00 00 00 00 ff     ................
     bbb:	01 01 01 01 01 01 ff 00 00 00 00 00 00 ff 00 00     ................
     bcb:	00 00 00 00 0f 00 00 00 00 00 00 ff 00 00 00 00     ................
     bdb:	00 00 ff 00 00 00 00 00 00 ff 00 00 00 00 00 00     ................
     beb:	ff 00 00 00 00 00 00 ff 00 00 00 00 00 00 ff 00     ................
     bfb:	00 00 00 00 f0 00 00 00 00 00 00 00 00 00 00 00     ................
     c0b:	ff 00 00 00 00 ff 80 80 80 80 80 80 ff 80 80 80     ................
     c1b:	80 80 80 ff 80 80 80 80 80 80 83 80 80 80 80 80     ................
     c2b:	80 83 80 80 80 80 80 80 ff 80 80 80 80 80 80 87     ................
     c3b:	80 80 80 80 80 80 87 80 80 80 80 80 80 ff 80 80     ................
     c4b:	80 80 80 80 ff 80 80 80 80 80 80 ff 80 80 80 80     ................
     c5b:	80 80 ff 80 80 80 80 80 80 87 84 84 84 84 84 84     ................
     c6b:	87 80 80 80 80 80 80 87 84 84 84 84 84 84 87 80     ................
     c7b:	80 80 80 80 ff 80 80 80                             ........

00000c83 <Arial_Bold_14>:
     c83:	22 08 0a 0e 20 60 04 02 05 06 07 08 09 02 03 03     "... `..........
     c93:	05 08 02 04 02 04 07 04 07 07 07 07 07 07 07 07     ................
     ca3:	02 02 07 07 07 08 0e 09 08 08 08 07 07 09 08 02     ................
     cb3:	07 08 07 0b 08 09 07 09 09 07 08 08 09 0d 07 08     ................
     cc3:	08 04 04 04 06 08 03 07 07 06 07 07 05 07 07 02     ................
     cd3:	03 06 02 0a 07 07 07 07 05 06 05 07 07 0b 06 07     ................
     ce3:	05 05 01 05 07 08 00 00 00 00 00 00 00 00 fe fe     ................
     cf3:	18 18 1e 1e 00 1e 1e 00 00 00 00 00 90 f8 9e 90     ................
     d03:	f8 9e 1c 00 00 1c 00 00 18 3c 26 ff 66 cc 88 04     .........<&.f...
     d13:	0c 18 3c 18 0c 04 1c 22 1c c0 30 8e 40 80 00 00     ..<...."..0.@...
     d23:	18 04 00 0c 10 0c 80 cc 7e 72 f2 de 0c 80 00 0c     ........~r......
     d33:	1c 10 10 10 1c 0c 1c 10 1e 1e 00 00 f0 fc 06 1c     ................
     d43:	7c c0 06 fc f0 c0 7c 1c 14 14 0e 14 14 00 00 00     |.....|.........
     d53:	00 00 60 60 60 fc fc 60 60 60 00 00 00 0c 0c 00     ..```..```......
     d63:	00 00 00 00 58 38 c0 c0 c0 c0 00 00 00 00 00 00     ....X8..........
     d73:	18 18 00 c0 38 06 18 04 00 00 f8 fc 0e 06 0e fc     ....8...........
     d83:	f8 04 0c 1c 18 1c 0c 04 18 0c fe fe 00 00 1c 1c     ................
     d93:	18 1c 86 c6 66 3e 1c 18 1c 1c 18 18 18 18 88 8c     ....f>..........
     da3:	06 26 26 fe dc 04 0c 1c 18 18 0c 04 c0 e0 b8 8c     .&&.............
     db3:	fe fe 80 04 04 04 04 1c 1c 04 70 7e 3e 36 36 f6     ..........p~>66.
     dc3:	c6 0c 1c 18 18 18 0c 04 f8 fc 6e 66 66 ee cc 04     ..........nff...
     dd3:	0c 18 18 18 1c 0c 06 06 06 e6 76 1e 06 00 00 1c     ..........v.....
     de3:	1c 00 00 00 9c fe 66 66 66 fe 9c 0c 1c 18 18 18     ......fff.......
     df3:	1c 0c 3c 7e 66 66 66 fc f8 0c 1c 18 18 1c 0c 04     ..<~fff.........
     e03:	18 18 18 18 18 18 58 38 60 60 f0 f0 98 98 0c 00     ......X8``......
     e13:	00 00 00 04 04 0c d8 d8 d8 d8 d8 d8 d8 00 00 00     ................
     e23:	00 00 00 00 0c 98 98 f0 f0 60 60 0c 04 04 00 00     .........``.....
     e33:	00 00 08 0c 06 c6 e6 76 3c 18 00 00 00 18 18 00     .......v<.......
     e43:	00 00 e0 30 08 c4 f6 3a 1a 1a f2 fa 7e 04 08 f0     ...0...:....~...
     e53:	0c 30 60 4c 9c 98 98 8c 9c 9c 90 48 4c 20 00 c0     .0`L.......HL ..
     e63:	f8 be 86 be f8 c0 00 18 1c 04 04 04 04 04 1c 18     ................
     e73:	fe fe 66 66 66 66 fe dc 1c 1c 18 18 18 18 1c 0c     ..ffff..........
     e83:	f8 fc 0e 06 06 0e 9c 08 04 0c 1c 18 18 1c 0c 04     ................
     e93:	fe fe 06 06 06 0e fc f8 1c 1c 18 18 18 1c 0c 04     ................
     ea3:	fe fe 66 66 66 66 66 1c 1c 18 18 18 18 18 fe fe     ..fffff.........
     eb3:	66 66 66 66 06 1c 1c 00 00 00 00 00 f8 fc 0e 06     ffff............
     ec3:	06 c6 ce dc c8 04 0c 1c 18 18 18 18 0c 04 fe fe     ................
     ed3:	60 60 60 60 fe fe 1c 1c 00 00 00 00 1c 1c fe fe     ````............
     ee3:	1c 1c 80 80 00 00 00 fe fe 0c 1c 18 18 18 1c 0c     ................
     ef3:	fe fe 60 30 78 ec 86 02 1c 1c 00 00 00 04 1c 18     ..`0x...........
     f03:	fe fe 00 00 00 00 00 1c 1c 18 18 18 18 18 fe fe     ................
     f13:	0e 7c e0 00 e0 7c 0e fe fe 1c 1c 00 00 0c 1c 0c     .|...|..........
     f23:	00 00 1c 1c fe fe 1c 78 e0 80 fe fe 1c 1c 00 00     .......x........
     f33:	04 0c 1c 1c f8 fc 0e 06 06 06 0e fc f8 04 0c 1c     ................
     f43:	18 18 18 1c 0c 04 fe fe 66 66 66 7e 3c 1c 1c 00     ........fff~<...
     f53:	00 00 00 00 f8 fc 0e 06 86 06 0e fc f8 04 0c 1c     ................
     f63:	18 18 1c 0c 1c 24 fe fe 66 66 e6 e6 be 1c 00 1c     .....$..ff......
     f73:	1c 00 00 00 0c 1c 18 10 3c 7e 66 66 66 ee cc 0c     ........<~fff...
     f83:	1c 18 18 18 1c 0c 06 06 06 fe fe 06 06 06 00 00     ................
     f93:	00 1c 1c 00 00 00 fe fe 00 00 00 00 fe fe 04 0c     ................
     fa3:	1c 18 18 1c 0c 04 02 1e fc e0 00 e0 fc 1e 02 00     ................
     fb3:	00 00 1c 1c 1c 00 00 00 06 fe f8 00 f0 fe 0e fe     ................
     fc3:	f0 00 f8 fe 06 00 00 1c 1c 1c 00 00 00 1c 1c 1c     ................
     fd3:	00 00 06 0e f8 f0 f8 0e 06 18 1c 04 00 04 1c 18     ................
     fe3:	06 0e 38 f0 f0 38 0e 06 00 00 00 1c 1c 00 00 00     ..8..8..........
     ff3:	06 06 86 e6 76 1e 0e 06 18 1c 1c 18 18 18 18 18     ....v...........
    1003:	fe fe 06 06 fc fc c0 c0 06 38 c0 00 00 00 04 18     .........8......
    1013:	06 06 fe fe c0 c0 fc fc 20 38 0e 0e 38 20 00 00     ........ 8..8 ..
	...
    102f:	80 80 80 80 80 80 80 80 02 06 04 00 00 00 10 98     ................
    103f:	d8 58 f8 f0 00 0c 1c 18 18 0c 1c 10 fe fe 30 18     .X............0.
    104f:	38 f0 e0 1c 1c 0c 18 1c 0c 04 e0 f0 18 18 38 30     8.............80
    105f:	04 0c 18 18 1c 0c e0 f0 38 18 30 fe fe 04 0c 1c     ........8.0.....
    106f:	18 0c 1c 1c e0 f0 d8 d8 d8 f0 e0 04 0c 18 18 18     ................
    107f:	18 08 18 fc fe 1a 1a 00 1c 1c 00 00 e0 f0 38 18     ..............8.
    108f:	30 f8 f8 64 ec dc d8 cc fc 7c fe fe 30 18 18 f8     0..d.....|..0...
    109f:	f0 1c 1c 00 00 00 1c 1c fa fa 1c 1c 00 fa fa c0     ................
    10af:	fc 7c fe fe e0 f0 98 08 1c 1c 00 04 1c 18 fe fe     .|..............
    10bf:	1c 1c f8 f8 10 18 f8 f0 18 18 f8 f0 1c 1c 00 00     ................
    10cf:	1c 1c 00 00 1c 1c f8 f8 30 18 18 f8 f0 1c 1c 00     ........0.......
    10df:	00 00 1c 1c e0 f0 38 18 38 f0 e0 04 0c 1c 18 1c     ......8.8.......
    10ef:	0c 04 f8 f8 30 18 38 f0 e0 fc fc 0c 18 1c 0c 04     ....0.8.........
    10ff:	e0 f0 38 18 30 f8 f8 04 0c 1c 18 0c fc fc f8 f8     ..8.0...........
    110f:	30 18 18 1c 1c 00 00 00 70 f8 d8 d8 d8 90 08 18     0.......p.......
    111f:	18 18 1c 0c 18 fc fe 18 18 00 0c 1c 18 18 f8 f8     ................
    112f:	00 00 00 f8 f8 0c 1c 18 18 0c 1c 1c 38 f8 c0 00     ............8...
    113f:	c0 f8 38 00 00 1c 1c 1c 00 00 18 f8 e0 00 f0 38     ..8............8
    114f:	f0 00 e0 f8 18 00 00 1c 1c 0c 00 0c 1c 1c 00 00     ................
    115f:	18 38 e0 e0 38 18 18 1c 04 04 1c 18 18 f8 e0 00     .8..8...........
    116f:	e0 f8 18 00 84 fc f8 3c 04 00 18 98 d8 78 38 1c     .......<.....x8.
    117f:	1c 18 18 18 80 fc 7e 06 06 00 7c fc c0 c0 fe fc     ......~...|.....
    118f:	06 06 7e fc 80 c0 c0 fc 7c 00 60 30 30 70 60 60     ..~.....|.`00p``
    119f:	30 00 00 00 00 00 00 00 fe 02 02 02 02 02 02 fe     0...............
    11af:	1c 10 10 10 10 10 10 1c                             ........

000011b7 <__c.2399>:
    11b7:	21 21 21 21 48 49 47 48 20 53 43 4f 52 45 21 21     !!!!HIGH SCORE!!
    11c7:	21 21 00                                            !!.

000011ca <__c.2397>:
    11ca:	21 21 21 21 48 49 47 48 20 53 43 4f 52 45 21 21     !!!!HIGH SCORE!!
    11da:	21 21 00                                            !!.

000011dd <__c.2395>:
    11dd:	21 21 21 21 48 49 47 48 20 53 43 4f 52 45 21 21     !!!!HIGH SCORE!!
    11ed:	21 21 00                                            !!.

000011f0 <__c.2393>:
    11f0:	53 63 6f 72 65 20 2d 00                             Score -.

000011f8 <__c.2391>:
    11f8:	21 21 21 2e 2e 47 61 6d 65 20 4f 76 65 72 2e 2e     !!!..Game Over..
    1208:	21 21 21 00                                         !!!.

0000120c <__c.2389>:
    120c:	21 21 21 21 48 49 47 48 20 53 43 4f 52 45 21 21     !!!!HIGH SCORE!!
    121c:	21 21 00                                            !!.

0000121f <__c.2387>:
    121f:	21 21 21 21 48 49 47 48 20 53 43 4f 52 45 21 21     !!!!HIGH SCORE!!
    122f:	21 21 00                                            !!.

00001232 <__c.2385>:
    1232:	21 21 21 21 48 49 47 48 20 53 43 4f 52 45 21 21     !!!!HIGH SCORE!!
    1242:	21 21 00                                            !!.

00001245 <__c.2383>:
    1245:	53 63 6f 72 65 20 2d 00                             Score -.

0000124d <__c.2381>:
    124d:	4c 65 76 65 6c 20 43 6f 6d 70 6c 65 74 65 64 00     Level Completed.

0000125d <__c.2378>:
    125d:	31 00                                               1.

0000125f <__c.2376>:
    125f:	32 00                                               2.

00001261 <__c.2374>:
    1261:	33 00                                               3.

00001263 <__c.2372>:
    1263:	4c 45 56 45 4c 20 33 00                             LEVEL 3.

0000126b <__c.2367>:
    126b:	21 21 21 21 48 49 47 48 20 53 43 4f 52 45 21 21     !!!!HIGH SCORE!!
    127b:	21 21 00                                            !!.

0000127e <__c.2365>:
    127e:	21 21 21 21 48 49 47 48 20 53 43 4f 52 45 21 21     !!!!HIGH SCORE!!
    128e:	21 21 00                                            !!.

00001291 <__c.2363>:
    1291:	21 21 21 21 48 49 47 48 20 53 43 4f 52 45 21 21     !!!!HIGH SCORE!!
    12a1:	21 21 00                                            !!.

000012a4 <__c.2361>:
    12a4:	53 63 6f 72 65 20 2d 00                             Score -.

000012ac <__c.2359>:
    12ac:	21 21 21 2e 2e 47 61 6d 65 20 4f 76 65 72 2e 2e     !!!..Game Over..
    12bc:	21 21 21 00                                         !!!.

000012c0 <__c.2357>:
    12c0:	4c 65 76 65 6c 20 43 6f 6d 70 6c 65 74 65 64 00     Level Completed.

000012d0 <__c.2334>:
    12d0:	31 00                                               1.

000012d2 <__c.2332>:
    12d2:	32 00                                               2.

000012d4 <__c.2330>:
    12d4:	33 00                                               3.

000012d6 <__c.2328>:
    12d6:	4c 45 56 45 4c 20 32 00                             LEVEL 2.

000012de <__c.2322>:
    12de:	53 63 6f 72 65 20 2d 00                             Score -.

000012e6 <__c.2320>:
    12e6:	21 21 21 2e 2e 47 61 6d 65 20 4f 76 65 72 2e 2e     !!!..Game Over..
    12f6:	21 21 21 00                                         !!!.

000012fa <__c.2317>:
    12fa:	4c 65 76 65 6c 20 43 6f 6d 70 6c 65 74 65 64 00     Level Completed.

0000130a <__c.2307>:
    130a:	31 00                                               1.

0000130c <__c.2305>:
    130c:	32 00                                               2.

0000130e <__c.2303>:
    130e:	33 00                                               3.

00001310 <__c.2301>:
    1310:	4c 45 56 45 4c 20 31 00                             LEVEL 1.

00001318 <__c.2299>:
    1318:	57 45 4c 43 4f 4d 45 00                             WELCOME.

00001320 <__ctors_end>:
    1320:	11 24       	eor	r1, r1
    1322:	1f be       	out	0x3f, r1	; 63
    1324:	cf e5       	ldi	r28, 0x5F	; 95
    1326:	d4 e0       	ldi	r29, 0x04	; 4
    1328:	de bf       	out	0x3e, r29	; 62
    132a:	cd bf       	out	0x3d, r28	; 61

0000132c <__do_clear_bss>:
    132c:	10 e0       	ldi	r17, 0x00	; 0
    132e:	a0 e6       	ldi	r26, 0x60	; 96
    1330:	b0 e0       	ldi	r27, 0x00	; 0
    1332:	01 c0       	rjmp	.+2      	; 0x1336 <.do_clear_bss_start>

00001334 <.do_clear_bss_loop>:
    1334:	1d 92       	st	X+, r1

00001336 <.do_clear_bss_start>:
    1336:	a2 3e       	cpi	r26, 0xE2	; 226
    1338:	b1 07       	cpc	r27, r17
    133a:	e1 f7       	brne	.-8      	; 0x1334 <.do_clear_bss_loop>
    133c:	0e 94 00 18 	call	0x3000	; 0x3000 <main>
    1340:	0c 94 ff 2b 	jmp	0x57fe	; 0x57fe <_exit>

00001344 <__bad_interrupt>:
    1344:	0c 94 00 00 	jmp	0	; 0x0 <__vectors>

00001348 <ks0108ReadFontData>:
//
// Font Functions
//

uint8_t ks0108ReadFontData(const uint8_t* ptr) {
	return pgm_read_byte(ptr);
    1348:	fc 01       	movw	r30, r24
    134a:	84 91       	lpm	r24, Z+
}
    134c:	08 95       	ret

0000134e <ks0108SelectFont>:

void ks0108SelectFont(const char* font, ks0108FontCallback callback, uint8_t color) {
	ks0108Font = font;
    134e:	90 93 c7 00 	sts	0x00C7, r25
    1352:	80 93 c6 00 	sts	0x00C6, r24
	ks0108FontRead = callback;
    1356:	70 93 bd 00 	sts	0x00BD, r23
    135a:	60 93 bc 00 	sts	0x00BC, r22
	ks0108FontColor = color;
    135e:	40 93 9e 00 	sts	0x009E, r20
}
    1362:	08 95       	ret

00001364 <ks0108CharWidth>:
		}
		str++;
	}
}

uint8_t ks0108CharWidth(char c) {
    1364:	0f 93       	push	r16
    1366:	1f 93       	push	r17
    1368:	08 2f       	mov	r16, r24
	uint8_t width = 0;
	uint8_t firstChar = ks0108FontRead(ks0108Font+FONT_FIRST_CHAR);
    136a:	80 91 c6 00 	lds	r24, 0x00C6
    136e:	90 91 c7 00 	lds	r25, 0x00C7
    1372:	e0 91 bc 00 	lds	r30, 0x00BC
    1376:	f0 91 bd 00 	lds	r31, 0x00BD
    137a:	04 96       	adiw	r24, 0x04	; 4
    137c:	09 95       	icall
    137e:	18 2f       	mov	r17, r24
	uint8_t charCount = ks0108FontRead(ks0108Font+FONT_CHAR_COUNT);
    1380:	80 91 c6 00 	lds	r24, 0x00C6
    1384:	90 91 c7 00 	lds	r25, 0x00C7
    1388:	e0 91 bc 00 	lds	r30, 0x00BC
    138c:	f0 91 bd 00 	lds	r31, 0x00BD
    1390:	05 96       	adiw	r24, 0x05	; 5
    1392:	09 95       	icall
    1394:	48 2f       	mov	r20, r24
	
	// read width data
	if(c >= firstChar && c < (firstChar+charCount)) {
    1396:	01 17       	cp	r16, r17
    1398:	d8 f0       	brcs	.+54     	; 0x13d0 <ks0108CharWidth+0x6c>
    139a:	20 2f       	mov	r18, r16
    139c:	30 e0       	ldi	r19, 0x00	; 0
    139e:	81 2f       	mov	r24, r17
    13a0:	90 e0       	ldi	r25, 0x00	; 0
    13a2:	84 0f       	add	r24, r20
    13a4:	91 1d       	adc	r25, r1
    13a6:	28 17       	cp	r18, r24
    13a8:	39 07       	cpc	r19, r25
    13aa:	94 f4       	brge	.+36     	; 0x13d0 <ks0108CharWidth+0x6c>
		c -= firstChar;
		width = ks0108FontRead(ks0108Font+FONT_WIDTH_TABLE+c)+1;
    13ac:	01 1b       	sub	r16, r17
    13ae:	20 2f       	mov	r18, r16
    13b0:	30 e0       	ldi	r19, 0x00	; 0
    13b2:	2a 5f       	subi	r18, 0xFA	; 250
    13b4:	3f 4f       	sbci	r19, 0xFF	; 255
    13b6:	80 91 c6 00 	lds	r24, 0x00C6
    13ba:	90 91 c7 00 	lds	r25, 0x00C7
    13be:	e0 91 bc 00 	lds	r30, 0x00BC
    13c2:	f0 91 bd 00 	lds	r31, 0x00BD
    13c6:	82 0f       	add	r24, r18
    13c8:	93 1f       	adc	r25, r19
    13ca:	09 95       	icall
    13cc:	8f 5f       	subi	r24, 0xFF	; 255
    13ce:	01 c0       	rjmp	.+2      	; 0x13d2 <ks0108CharWidth+0x6e>
    13d0:	80 e0       	ldi	r24, 0x00	; 0
	}
	
	return width;
}
    13d2:	1f 91       	pop	r17
    13d4:	0f 91       	pop	r16
    13d6:	08 95       	ret

000013d8 <ks0108StringWidth>:

uint16_t ks0108StringWidth(char* str) {
    13d8:	0f 93       	push	r16
    13da:	1f 93       	push	r17
    13dc:	cf 93       	push	r28
    13de:	df 93       	push	r29
    13e0:	8c 01       	movw	r16, r24
    13e2:	c0 e0       	ldi	r28, 0x00	; 0
    13e4:	d0 e0       	ldi	r29, 0x00	; 0
    13e6:	06 c0       	rjmp	.+12     	; 0x13f4 <ks0108StringWidth+0x1c>
	uint16_t width = 0;
	
	while(*str != 0) {
		width += ks0108CharWidth(*str++);
    13e8:	0f 5f       	subi	r16, 0xFF	; 255
    13ea:	1f 4f       	sbci	r17, 0xFF	; 255
    13ec:	0e 94 b2 09 	call	0x1364	; 0x1364 <ks0108CharWidth>
    13f0:	c8 0f       	add	r28, r24
    13f2:	d1 1d       	adc	r29, r1
}

uint16_t ks0108StringWidth(char* str) {
	uint16_t width = 0;
	
	while(*str != 0) {
    13f4:	f8 01       	movw	r30, r16
    13f6:	80 81       	ld	r24, Z
    13f8:	88 23       	and	r24, r24
    13fa:	b1 f7       	brne	.-20     	; 0x13e8 <ks0108StringWidth+0x10>
		width += ks0108CharWidth(*str++);
	}
	
	return width;
}
    13fc:	ce 01       	movw	r24, r28
    13fe:	df 91       	pop	r29
    1400:	cf 91       	pop	r28
    1402:	1f 91       	pop	r17
    1404:	0f 91       	pop	r16
    1406:	08 95       	ret

00001408 <ks0108StringWidth_P>:

uint16_t ks0108StringWidth_P(PGM_P str) {
    1408:	0f 93       	push	r16
    140a:	1f 93       	push	r17
    140c:	cf 93       	push	r28
    140e:	df 93       	push	r29
    1410:	ec 01       	movw	r28, r24
    1412:	00 e0       	ldi	r16, 0x00	; 0
    1414:	10 e0       	ldi	r17, 0x00	; 0
    1416:	07 c0       	rjmp	.+14     	; 0x1426 <ks0108StringWidth_P+0x1e>
	uint16_t width = 0;
	
	while(pgm_read_byte(str) != 0) {
		width += ks0108CharWidth(pgm_read_byte(str++));
    1418:	21 96       	adiw	r28, 0x01	; 1
    141a:	f9 01       	movw	r30, r18
    141c:	84 91       	lpm	r24, Z+
    141e:	0e 94 b2 09 	call	0x1364	; 0x1364 <ks0108CharWidth>
    1422:	08 0f       	add	r16, r24
    1424:	11 1d       	adc	r17, r1
    1426:	9e 01       	movw	r18, r28
}

uint16_t ks0108StringWidth_P(PGM_P str) {
	uint16_t width = 0;
	
	while(pgm_read_byte(str) != 0) {
    1428:	fe 01       	movw	r30, r28
    142a:	84 91       	lpm	r24, Z+
    142c:	88 23       	and	r24, r24
    142e:	a1 f7       	brne	.-24     	; 0x1418 <ks0108StringWidth_P+0x10>
		width += ks0108CharWidth(pgm_read_byte(str++));
	}
	
	return width;
}
    1430:	c8 01       	movw	r24, r16
    1432:	df 91       	pop	r29
    1434:	cf 91       	pop	r28
    1436:	1f 91       	pop	r17
    1438:	0f 91       	pop	r16
    143a:	08 95       	ret

0000143c <ks0108WriteCommand>:
inline uint8_t ks0108ReadData(void) {
	ks0108DoReadData(1);							// dummy read
	return ks0108DoReadData(0);						// "real" read
}

void ks0108WriteCommand(uint8_t cmd, uint8_t chip) {
    143c:	df 93       	push	r29
    143e:	cf 93       	push	r28
    1440:	0f 92       	push	r0
    1442:	cd b7       	in	r28, 0x3d	; 61
    1444:	de b7       	in	r29, 0x3e	; 62
    1446:	98 2f       	mov	r25, r24
	if(chip == CHIP1) {
    1448:	66 23       	and	r22, r22
    144a:	19 f4       	brne	.+6      	; 0x1452 <ks0108WriteCommand+0x16>
		LCD_CMD_PORT &= ~(0x01 << CSEL2);			// deselect chip 2
    144c:	ac 98       	cbi	0x15, 4	; 21
		LCD_CMD_PORT |= 0x01 << CSEL1;				// select chip 1
    144e:	ab 9a       	sbi	0x15, 3	; 21
    1450:	04 c0       	rjmp	.+8      	; 0x145a <ks0108WriteCommand+0x1e>
	} else if(chip == CHIP2) {
    1452:	61 30       	cpi	r22, 0x01	; 1
    1454:	11 f4       	brne	.+4      	; 0x145a <ks0108WriteCommand+0x1e>
		LCD_CMD_PORT &= ~(0x01 << CSEL1);			// deselect chip 1
    1456:	ab 98       	cbi	0x15, 3	; 21
		LCD_CMD_PORT |= 0x01 << CSEL2;				// select chip 2
    1458:	ac 9a       	sbi	0x15, 4	; 21
	}
	
	LCD_CMD_PORT &= ~(0x01 << D_I);					// D/I = 0
    145a:	a8 98       	cbi	0x15, 0	; 21
	LCD_CMD_PORT &= ~(0x01 << R_W);					// R/W = 0
    145c:	a9 98       	cbi	0x15, 1	; 21
	LCD_DATA_DIR = 0xFF;							// data port is output
    145e:	8f ef       	ldi	r24, 0xFF	; 255
    1460:	81 bb       	out	0x11, r24	; 17
	LCD_DATA_OUT = cmd;								// write command
    1462:	92 bb       	out	0x12, r25	; 18
	ks0108ClearScreen();							// display clear
	ks0108GotoXY(0,0);
}

inline void ks0108Enable(void) {
	LCD_CMD_PORT |= 0x01 << EN;						// EN high level width: min. 450ns
    1464:	aa 9a       	sbi	0x15, 2	; 21
	asm volatile("nop\n\t"
    1466:	00 00       	nop
    1468:	00 00       	nop
    146a:	00 00       	nop
				 "nop\n\t"
				 "nop\n\t"
				 ::);
	LCD_CMD_PORT &= ~(0x01 << EN);
    146c:	aa 98       	cbi	0x15, 2	; 21
	for(volatile uint8_t i=0; i<8; i++);			// a little delay loop (faster than reading the busy flag)
    146e:	19 82       	std	Y+1, r1	; 0x01
    1470:	03 c0       	rjmp	.+6      	; 0x1478 <ks0108WriteCommand+0x3c>
    1472:	89 81       	ldd	r24, Y+1	; 0x01
    1474:	8f 5f       	subi	r24, 0xFF	; 255
    1476:	89 83       	std	Y+1, r24	; 0x01
    1478:	89 81       	ldd	r24, Y+1	; 0x01
    147a:	88 30       	cpi	r24, 0x08	; 8
    147c:	d0 f3       	brcs	.-12     	; 0x1472 <ks0108WriteCommand+0x36>
	LCD_CMD_PORT &= ~(0x01 << D_I);					// D/I = 0
	LCD_CMD_PORT &= ~(0x01 << R_W);					// R/W = 0
	LCD_DATA_DIR = 0xFF;							// data port is output
	LCD_DATA_OUT = cmd;								// write command
	ks0108Enable();									// enable
	LCD_DATA_OUT = 0x00;
    147e:	12 ba       	out	0x12, r1	; 18
}
    1480:	0f 90       	pop	r0
    1482:	cf 91       	pop	r28
    1484:	df 91       	pop	r29
    1486:	08 95       	ret

00001488 <ks0108GotoXY>:
	}
	
	return width;
}

void ks0108GotoXY(uint8_t x, uint8_t y) {
    1488:	1f 93       	push	r17
	uint8_t chip = CHIP1, cmd;
	
	if(x > 127) x = 0;								// ensure that coordinates are legal
    148a:	87 fd       	sbrc	r24, 7
    148c:	80 e0       	ldi	r24, 0x00	; 0
	if(y > 63)  y = 0;
    148e:	60 34       	cpi	r22, 0x40	; 64
    1490:	08 f0       	brcs	.+2      	; 0x1494 <ks0108GotoXY+0xc>
    1492:	60 e0       	ldi	r22, 0x00	; 0
	
	ks0108Coord.x = x;								// save new coordinates
    1494:	80 93 a5 00 	sts	0x00A5, r24
	ks0108Coord.y = y;
    1498:	60 93 a6 00 	sts	0x00A6, r22
	ks0108Coord.page = y/8;
    149c:	66 95       	lsr	r22
    149e:	66 95       	lsr	r22
    14a0:	66 95       	lsr	r22
    14a2:	60 93 a7 00 	sts	0x00A7, r22
	
	if(x >= 64) {									// select the right chip
    14a6:	80 34       	cpi	r24, 0x40	; 64
    14a8:	10 f4       	brcc	.+4      	; 0x14ae <ks0108GotoXY+0x26>
    14aa:	60 e0       	ldi	r22, 0x00	; 0
    14ac:	02 c0       	rjmp	.+4      	; 0x14b2 <ks0108GotoXY+0x2a>
		x -= 64;
    14ae:	80 54       	subi	r24, 0x40	; 64
    14b0:	61 e0       	ldi	r22, 0x01	; 1
		chip = CHIP2;
	}
	cmd = LCD_SET_ADD | x;
	ks0108WriteCommand(cmd, chip);					// set x address on active chip
    14b2:	80 64       	ori	r24, 0x40	; 64
    14b4:	0e 94 1e 0a 	call	0x143c	; 0x143c <ks0108WriteCommand>
	
	cmd = LCD_SET_PAGE | ks0108Coord.page;			// set y address on both chips
    14b8:	10 91 a7 00 	lds	r17, 0x00A7
    14bc:	18 6b       	ori	r17, 0xB8	; 184
	ks0108WriteCommand(cmd, CHIP1);
    14be:	81 2f       	mov	r24, r17
    14c0:	60 e0       	ldi	r22, 0x00	; 0
    14c2:	0e 94 1e 0a 	call	0x143c	; 0x143c <ks0108WriteCommand>
	ks0108WriteCommand(cmd, CHIP2);
    14c6:	81 2f       	mov	r24, r17
    14c8:	61 e0       	ldi	r22, 0x01	; 1
    14ca:	0e 94 1e 0a 	call	0x143c	; 0x143c <ks0108WriteCommand>
}
    14ce:	1f 91       	pop	r17
    14d0:	08 95       	ret

000014d2 <ks0108DoReadData>:
				 ::);
	LCD_CMD_PORT &= ~(0x01 << EN);
	for(volatile uint8_t i=0; i<8; i++);			// a little delay loop (faster than reading the busy flag)
}

uint8_t ks0108DoReadData(uint8_t first) {
    14d2:	1f 93       	push	r17
    14d4:	df 93       	push	r29
    14d6:	cf 93       	push	r28
    14d8:	0f 92       	push	r0
    14da:	cd b7       	in	r28, 0x3d	; 61
    14dc:	de b7       	in	r29, 0x3e	; 62
	uint8_t data;
	volatile uint8_t i;
	
	LCD_DATA_OUT = 0x00;
    14de:	12 ba       	out	0x12, r1	; 18
	LCD_DATA_DIR = 0x00;							// data port is input
    14e0:	11 ba       	out	0x11, r1	; 17
	
	if(ks0108Coord.x < 64) {
    14e2:	90 91 a5 00 	lds	r25, 0x00A5
    14e6:	90 34       	cpi	r25, 0x40	; 64
    14e8:	18 f4       	brcc	.+6      	; 0x14f0 <ks0108DoReadData+0x1e>
		LCD_CMD_PORT &= ~(0x01 << CSEL2);			// deselect chip 2
    14ea:	ac 98       	cbi	0x15, 4	; 21
		LCD_CMD_PORT |= 0x01 << CSEL1;				// select chip 1
    14ec:	ab 9a       	sbi	0x15, 3	; 21
    14ee:	02 c0       	rjmp	.+4      	; 0x14f4 <ks0108DoReadData+0x22>
	} else if(ks0108Coord.x >= 64) {
		LCD_CMD_PORT &= ~(0x01 << CSEL1);			// deselect chip 1
    14f0:	ab 98       	cbi	0x15, 3	; 21
		LCD_CMD_PORT |= 0x01 << CSEL2;				// select chip 2
    14f2:	ac 9a       	sbi	0x15, 4	; 21
	}
	if(ks0108Coord.x == 64 && first) {				// chip2 X-address = 0
    14f4:	90 34       	cpi	r25, 0x40	; 64
    14f6:	31 f4       	brne	.+12     	; 0x1504 <ks0108DoReadData+0x32>
    14f8:	88 23       	and	r24, r24
    14fa:	21 f0       	breq	.+8      	; 0x1504 <ks0108DoReadData+0x32>
		ks0108WriteCommand(LCD_SET_ADD, CHIP2); 	// wuff wuff
    14fc:	80 e4       	ldi	r24, 0x40	; 64
    14fe:	61 e0       	ldi	r22, 0x01	; 1
    1500:	0e 94 1e 0a 	call	0x143c	; 0x143c <ks0108WriteCommand>
	}
	
	LCD_CMD_PORT |= 0x01 << D_I;					// D/I = 1
    1504:	a8 9a       	sbi	0x15, 0	; 21
	LCD_CMD_PORT |= 0x01 << R_W;					// R/W = 1
    1506:	a9 9a       	sbi	0x15, 1	; 21
	
	LCD_CMD_PORT |= 0x01 << EN;						// EN high level width: min. 450ns
    1508:	aa 9a       	sbi	0x15, 2	; 21
	asm volatile("nop\n\t"
    150a:	00 00       	nop
    150c:	00 00       	nop
    150e:	00 00       	nop
				 "nop\n\t"
				 "nop\n\t"
				 ::);
	
	data = LCD_DATA_IN;								// read Data			 
    1510:	10 b3       	in	r17, 0x10	; 16
	
	LCD_CMD_PORT &= ~(0x01 << EN);
    1512:	aa 98       	cbi	0x15, 2	; 21
	for(i=0; i<8; i++);								// a little delay loop (faster than reading the busy flag)
    1514:	19 82       	std	Y+1, r1	; 0x01
    1516:	03 c0       	rjmp	.+6      	; 0x151e <ks0108DoReadData+0x4c>
    1518:	89 81       	ldd	r24, Y+1	; 0x01
    151a:	8f 5f       	subi	r24, 0xFF	; 255
    151c:	89 83       	std	Y+1, r24	; 0x01
    151e:	89 81       	ldd	r24, Y+1	; 0x01
    1520:	88 30       	cpi	r24, 0x08	; 8
    1522:	d0 f3       	brcs	.-12     	; 0x1518 <ks0108DoReadData+0x46>
	
	LCD_DATA_DIR = 0xFF;
    1524:	8f ef       	ldi	r24, 0xFF	; 255
    1526:	81 bb       	out	0x11, r24	; 17
	
	ks0108GotoXY(ks0108Coord.x, ks0108Coord.y);
    1528:	80 91 a5 00 	lds	r24, 0x00A5
    152c:	60 91 a6 00 	lds	r22, 0x00A6
    1530:	0e 94 44 0a 	call	0x1488	; 0x1488 <ks0108GotoXY>
	
	if(ks0108Inverted)
    1534:	80 91 60 00 	lds	r24, 0x0060
    1538:	81 11       	cpse	r24, r1
		data = ~data;
    153a:	10 95       	com	r17
	return data;
}
    153c:	81 2f       	mov	r24, r17
    153e:	0f 90       	pop	r0
    1540:	cf 91       	pop	r28
    1542:	df 91       	pop	r29
    1544:	1f 91       	pop	r17
    1546:	08 95       	ret

00001548 <ks0108WriteData>:
	LCD_DATA_OUT = cmd;								// write command
	ks0108Enable();									// enable
	LCD_DATA_OUT = 0x00;
}

void ks0108WriteData(uint8_t data) {
    1548:	df 92       	push	r13
    154a:	ef 92       	push	r14
    154c:	ff 92       	push	r15
    154e:	0f 93       	push	r16
    1550:	1f 93       	push	r17
    1552:	df 93       	push	r29
    1554:	cf 93       	push	r28
    1556:	0f 92       	push	r0
    1558:	cd b7       	in	r28, 0x3d	; 61
    155a:	de b7       	in	r29, 0x3e	; 62
    155c:	f8 2e       	mov	r15, r24
#ifdef DEBUG
	volatile uint16_t i;
	for(i=0; i<5000; i++);
#endif

	if(ks0108Coord.x >= 128)
    155e:	80 91 a5 00 	lds	r24, 0x00A5
    1562:	87 fd       	sbrc	r24, 7
    1564:	8b c0       	rjmp	.+278    	; 0x167c <ks0108WriteData+0x134>
		return;

	if(ks0108Coord.x < 64) {
    1566:	80 34       	cpi	r24, 0x40	; 64
    1568:	18 f4       	brcc	.+6      	; 0x1570 <ks0108WriteData+0x28>
		LCD_CMD_PORT &= ~(0x01 << CSEL2);			// deselect chip 2
    156a:	ac 98       	cbi	0x15, 4	; 21
		LCD_CMD_PORT |= 0x01 << CSEL1;				// select chip 1
    156c:	ab 9a       	sbi	0x15, 3	; 21
    156e:	02 c0       	rjmp	.+4      	; 0x1574 <ks0108WriteData+0x2c>
	} else if(ks0108Coord.x >= 64) {
		LCD_CMD_PORT &= ~(0x01 << CSEL1);			// deselect chip 1
    1570:	ab 98       	cbi	0x15, 3	; 21
		LCD_CMD_PORT |= 0x01 << CSEL2;				// select chip 2
    1572:	ac 9a       	sbi	0x15, 4	; 21
	}
	if(ks0108Coord.x == 64)							// chip2 X-address = 0
    1574:	80 34       	cpi	r24, 0x40	; 64
    1576:	19 f4       	brne	.+6      	; 0x157e <ks0108WriteData+0x36>
		ks0108WriteCommand(LCD_SET_ADD, CHIP2);
    1578:	61 e0       	ldi	r22, 0x01	; 1
    157a:	0e 94 1e 0a 	call	0x143c	; 0x143c <ks0108WriteCommand>
	
	LCD_CMD_PORT |= 0x01 << D_I;					// D/I = 1
    157e:	a8 9a       	sbi	0x15, 0	; 21
	LCD_CMD_PORT &= ~(0x01 << R_W);					// R/W = 0
    1580:	a9 98       	cbi	0x15, 1	; 21
	LCD_DATA_DIR = 0xFF;							// data port is output
    1582:	0f ef       	ldi	r16, 0xFF	; 255
    1584:	01 bb       	out	0x11, r16	; 17
	
	
	yOffset = ks0108Coord.y%8;
    1586:	10 91 a6 00 	lds	r17, 0x00A6
    158a:	17 70       	andi	r17, 0x07	; 7
	if(yOffset != 0) {
    158c:	09 f4       	brne	.+2      	; 0x1590 <ks0108WriteData+0x48>
    158e:	5e c0       	rjmp	.+188    	; 0x164c <ks0108WriteData+0x104>
		// first page
		cmdPort = LCD_CMD_PORT;						// save command port
    1590:	d5 b2       	in	r13, 0x15	; 21
		data = ~data;
	return data;
}

inline uint8_t ks0108ReadData(void) {
	ks0108DoReadData(1);							// dummy read
    1592:	81 e0       	ldi	r24, 0x01	; 1
    1594:	0e 94 69 0a 	call	0x14d2	; 0x14d2 <ks0108DoReadData>
	return ks0108DoReadData(0);						// "real" read
    1598:	80 e0       	ldi	r24, 0x00	; 0
    159a:	0e 94 69 0a 	call	0x14d2	; 0x14d2 <ks0108DoReadData>
	if(yOffset != 0) {
		// first page
		cmdPort = LCD_CMD_PORT;						// save command port
		displayData = ks0108ReadData();
		
		LCD_CMD_PORT = cmdPort;						// restore command port
    159e:	d5 ba       	out	0x15, r13	; 21
		LCD_DATA_DIR = 0xFF;						// data port is output
    15a0:	01 bb       	out	0x11, r16	; 17
		
		displayData |= data << yOffset;
    15a2:	ef 2c       	mov	r14, r15
    15a4:	ff 24       	eor	r15, r15
    15a6:	01 2f       	mov	r16, r17
    15a8:	10 e0       	ldi	r17, 0x00	; 0
    15aa:	97 01       	movw	r18, r14
    15ac:	00 2e       	mov	r0, r16
    15ae:	02 c0       	rjmp	.+4      	; 0x15b4 <ks0108WriteData+0x6c>
    15b0:	22 0f       	add	r18, r18
    15b2:	33 1f       	adc	r19, r19
    15b4:	0a 94       	dec	r0
    15b6:	e2 f7       	brpl	.-8      	; 0x15b0 <ks0108WriteData+0x68>
    15b8:	98 2f       	mov	r25, r24
    15ba:	92 2b       	or	r25, r18
		if(ks0108Inverted)
    15bc:	80 91 60 00 	lds	r24, 0x0060
    15c0:	81 11       	cpse	r24, r1
			displayData = ~displayData;
    15c2:	90 95       	com	r25
		LCD_DATA_OUT = displayData;					// write data
    15c4:	92 bb       	out	0x12, r25	; 18
	ks0108ClearScreen();							// display clear
	ks0108GotoXY(0,0);
}

inline void ks0108Enable(void) {
	LCD_CMD_PORT |= 0x01 << EN;						// EN high level width: min. 450ns
    15c6:	aa 9a       	sbi	0x15, 2	; 21
	asm volatile("nop\n\t"
    15c8:	00 00       	nop
    15ca:	00 00       	nop
    15cc:	00 00       	nop
				 "nop\n\t"
				 "nop\n\t"
				 ::);
	LCD_CMD_PORT &= ~(0x01 << EN);
    15ce:	aa 98       	cbi	0x15, 2	; 21
	for(volatile uint8_t i=0; i<8; i++);			// a little delay loop (faster than reading the busy flag)
    15d0:	19 82       	std	Y+1, r1	; 0x01
    15d2:	03 c0       	rjmp	.+6      	; 0x15da <ks0108WriteData+0x92>
    15d4:	89 81       	ldd	r24, Y+1	; 0x01
    15d6:	8f 5f       	subi	r24, 0xFF	; 255
    15d8:	89 83       	std	Y+1, r24	; 0x01
    15da:	89 81       	ldd	r24, Y+1	; 0x01
    15dc:	88 30       	cpi	r24, 0x08	; 8
    15de:	d0 f3       	brcs	.-12     	; 0x15d4 <ks0108WriteData+0x8c>
			displayData = ~displayData;
		LCD_DATA_OUT = displayData;					// write data
		ks0108Enable();								// enable
		
		// second page
		ks0108GotoXY(ks0108Coord.x, ks0108Coord.y+8);
    15e0:	60 91 a6 00 	lds	r22, 0x00A6
    15e4:	68 5f       	subi	r22, 0xF8	; 248
    15e6:	80 91 a5 00 	lds	r24, 0x00A5
    15ea:	0e 94 44 0a 	call	0x1488	; 0x1488 <ks0108GotoXY>
		data = ~data;
	return data;
}

inline uint8_t ks0108ReadData(void) {
	ks0108DoReadData(1);							// dummy read
    15ee:	81 e0       	ldi	r24, 0x01	; 1
    15f0:	0e 94 69 0a 	call	0x14d2	; 0x14d2 <ks0108DoReadData>
	return ks0108DoReadData(0);						// "real" read
    15f4:	80 e0       	ldi	r24, 0x00	; 0
    15f6:	0e 94 69 0a 	call	0x14d2	; 0x14d2 <ks0108DoReadData>
		// second page
		ks0108GotoXY(ks0108Coord.x, ks0108Coord.y+8);
		
		displayData = ks0108ReadData();
		
		LCD_CMD_PORT = cmdPort;						// restore command port
    15fa:	d5 ba       	out	0x15, r13	; 21
		LCD_DATA_DIR = 0xFF;						// data port is output
    15fc:	9f ef       	ldi	r25, 0xFF	; 255
    15fe:	91 bb       	out	0x11, r25	; 17
		
		displayData |= data >> (8-yOffset);
    1600:	28 e0       	ldi	r18, 0x08	; 8
    1602:	30 e0       	ldi	r19, 0x00	; 0
    1604:	20 1b       	sub	r18, r16
    1606:	31 0b       	sbc	r19, r17
    1608:	02 c0       	rjmp	.+4      	; 0x160e <ks0108WriteData+0xc6>
    160a:	f5 94       	asr	r15
    160c:	e7 94       	ror	r14
    160e:	2a 95       	dec	r18
    1610:	e2 f7       	brpl	.-8      	; 0x160a <ks0108WriteData+0xc2>
    1612:	28 2f       	mov	r18, r24
    1614:	2e 29       	or	r18, r14
		if(ks0108Inverted)
    1616:	80 91 60 00 	lds	r24, 0x0060
    161a:	81 11       	cpse	r24, r1
			displayData = ~displayData;
    161c:	20 95       	com	r18
		LCD_DATA_OUT = displayData;					// write data
    161e:	22 bb       	out	0x12, r18	; 18
	ks0108ClearScreen();							// display clear
	ks0108GotoXY(0,0);
}

inline void ks0108Enable(void) {
	LCD_CMD_PORT |= 0x01 << EN;						// EN high level width: min. 450ns
    1620:	aa 9a       	sbi	0x15, 2	; 21
	asm volatile("nop\n\t"
    1622:	00 00       	nop
    1624:	00 00       	nop
    1626:	00 00       	nop
				 "nop\n\t"
				 "nop\n\t"
				 ::);
	LCD_CMD_PORT &= ~(0x01 << EN);
    1628:	aa 98       	cbi	0x15, 2	; 21
	for(volatile uint8_t i=0; i<8; i++);			// a little delay loop (faster than reading the busy flag)
    162a:	19 82       	std	Y+1, r1	; 0x01
    162c:	03 c0       	rjmp	.+6      	; 0x1634 <ks0108WriteData+0xec>
    162e:	89 81       	ldd	r24, Y+1	; 0x01
    1630:	8f 5f       	subi	r24, 0xFF	; 255
    1632:	89 83       	std	Y+1, r24	; 0x01
    1634:	89 81       	ldd	r24, Y+1	; 0x01
    1636:	88 30       	cpi	r24, 0x08	; 8
    1638:	d0 f3       	brcs	.-12     	; 0x162e <ks0108WriteData+0xe6>
		if(ks0108Inverted)
			displayData = ~displayData;
		LCD_DATA_OUT = displayData;					// write data
		ks0108Enable();								// enable
		
		ks0108GotoXY(ks0108Coord.x+1, ks0108Coord.y-8);
    163a:	80 91 a5 00 	lds	r24, 0x00A5
    163e:	60 91 a6 00 	lds	r22, 0x00A6
    1642:	68 50       	subi	r22, 0x08	; 8
    1644:	8f 5f       	subi	r24, 0xFF	; 255
    1646:	0e 94 44 0a 	call	0x1488	; 0x1488 <ks0108GotoXY>
    164a:	17 c0       	rjmp	.+46     	; 0x167a <ks0108WriteData+0x132>
	} else {
		if(ks0108Inverted)
    164c:	80 91 60 00 	lds	r24, 0x0060
    1650:	81 11       	cpse	r24, r1
			data = ~data;
    1652:	f0 94       	com	r15
		LCD_DATA_OUT = data;						// write data
    1654:	f2 ba       	out	0x12, r15	; 18
	ks0108ClearScreen();							// display clear
	ks0108GotoXY(0,0);
}

inline void ks0108Enable(void) {
	LCD_CMD_PORT |= 0x01 << EN;						// EN high level width: min. 450ns
    1656:	aa 9a       	sbi	0x15, 2	; 21
	asm volatile("nop\n\t"
    1658:	00 00       	nop
    165a:	00 00       	nop
    165c:	00 00       	nop
				 "nop\n\t"
				 "nop\n\t"
				 ::);
	LCD_CMD_PORT &= ~(0x01 << EN);
    165e:	aa 98       	cbi	0x15, 2	; 21
	for(volatile uint8_t i=0; i<8; i++);			// a little delay loop (faster than reading the busy flag)
    1660:	19 82       	std	Y+1, r1	; 0x01
    1662:	03 c0       	rjmp	.+6      	; 0x166a <ks0108WriteData+0x122>
    1664:	89 81       	ldd	r24, Y+1	; 0x01
    1666:	8f 5f       	subi	r24, 0xFF	; 255
    1668:	89 83       	std	Y+1, r24	; 0x01
    166a:	89 81       	ldd	r24, Y+1	; 0x01
    166c:	88 30       	cpi	r24, 0x08	; 8
    166e:	d0 f3       	brcs	.-12     	; 0x1664 <ks0108WriteData+0x11c>
	} else {
		if(ks0108Inverted)
			data = ~data;
		LCD_DATA_OUT = data;						// write data
		ks0108Enable();								// enable
		ks0108Coord.x++;
    1670:	80 91 a5 00 	lds	r24, 0x00A5
    1674:	8f 5f       	subi	r24, 0xFF	; 255
    1676:	80 93 a5 00 	sts	0x00A5, r24
	}
	LCD_DATA_OUT = 0x00;
    167a:	12 ba       	out	0x12, r1	; 18
}
    167c:	0f 90       	pop	r0
    167e:	cf 91       	pop	r28
    1680:	df 91       	pop	r29
    1682:	1f 91       	pop	r17
    1684:	0f 91       	pop	r16
    1686:	ff 90       	pop	r15
    1688:	ef 90       	pop	r14
    168a:	df 90       	pop	r13
    168c:	08 95       	ret

0000168e <ks0108PutChar>:
	ks0108Font = font;
	ks0108FontRead = callback;
	ks0108FontColor = color;
}

int ks0108PutChar(char c) {
    168e:	2f 92       	push	r2
    1690:	3f 92       	push	r3
    1692:	4f 92       	push	r4
    1694:	5f 92       	push	r5
    1696:	6f 92       	push	r6
    1698:	7f 92       	push	r7
    169a:	8f 92       	push	r8
    169c:	9f 92       	push	r9
    169e:	af 92       	push	r10
    16a0:	bf 92       	push	r11
    16a2:	cf 92       	push	r12
    16a4:	df 92       	push	r13
    16a6:	ef 92       	push	r14
    16a8:	ff 92       	push	r15
    16aa:	0f 93       	push	r16
    16ac:	1f 93       	push	r17
    16ae:	cf 93       	push	r28
    16b0:	df 93       	push	r29
    16b2:	08 2f       	mov	r16, r24
	uint8_t width = 0;
	uint8_t height = ks0108FontRead(ks0108Font+FONT_HEIGHT);
    16b4:	80 91 c6 00 	lds	r24, 0x00C6
    16b8:	90 91 c7 00 	lds	r25, 0x00C7
    16bc:	e0 91 bc 00 	lds	r30, 0x00BC
    16c0:	f0 91 bd 00 	lds	r31, 0x00BD
    16c4:	03 96       	adiw	r24, 0x03	; 3
    16c6:	09 95       	icall
    16c8:	c8 2e       	mov	r12, r24
	uint8_t bytes = (height+7)/8;
	
	uint8_t firstChar = ks0108FontRead(ks0108Font+FONT_FIRST_CHAR);
    16ca:	80 91 c6 00 	lds	r24, 0x00C6
    16ce:	90 91 c7 00 	lds	r25, 0x00C7
    16d2:	e0 91 bc 00 	lds	r30, 0x00BC
    16d6:	f0 91 bd 00 	lds	r31, 0x00BD
    16da:	04 96       	adiw	r24, 0x04	; 4
    16dc:	09 95       	icall
    16de:	18 2f       	mov	r17, r24
	uint8_t charCount = ks0108FontRead(ks0108Font+FONT_CHAR_COUNT);
    16e0:	80 91 c6 00 	lds	r24, 0x00C6
    16e4:	90 91 c7 00 	lds	r25, 0x00C7
    16e8:	e0 91 bc 00 	lds	r30, 0x00BC
    16ec:	f0 91 bd 00 	lds	r31, 0x00BD
    16f0:	05 96       	adiw	r24, 0x05	; 5
    16f2:	09 95       	icall
    16f4:	d8 2e       	mov	r13, r24
	
	uint16_t index = 0;
	uint8_t x = ks0108Coord.x, y = ks0108Coord.y;
    16f6:	50 90 a5 00 	lds	r5, 0x00A5
    16fa:	20 90 a6 00 	lds	r2, 0x00A6
	
	if(c < firstChar || c >= (firstChar+charCount)) {
    16fe:	01 17       	cp	r16, r17
    1700:	08 f4       	brcc	.+2      	; 0x1704 <ks0108PutChar+0x76>
    1702:	a0 c0       	rjmp	.+320    	; 0x1844 <ks0108PutChar+0x1b6>
    1704:	20 2f       	mov	r18, r16
    1706:	30 e0       	ldi	r19, 0x00	; 0
    1708:	81 2f       	mov	r24, r17
    170a:	90 e0       	ldi	r25, 0x00	; 0
    170c:	8d 0d       	add	r24, r13
    170e:	91 1d       	adc	r25, r1
    1710:	28 17       	cp	r18, r24
    1712:	39 07       	cpc	r19, r25
    1714:	0c f0       	brlt	.+2      	; 0x1718 <ks0108PutChar+0x8a>
    1716:	96 c0       	rjmp	.+300    	; 0x1844 <ks0108PutChar+0x1b6>
		return 1;
	}
	c-= firstChar;
    1718:	e0 2e       	mov	r14, r16
    171a:	e1 1a       	sub	r14, r17
    171c:	00 e0       	ldi	r16, 0x00	; 0
    171e:	10 e0       	ldi	r17, 0x00	; 0
    1720:	ff 24       	eor	r15, r15
    1722:	c6 e0       	ldi	r28, 0x06	; 6
    1724:	d0 e0       	ldi	r29, 0x00	; 0
    1726:	08 c0       	rjmp	.+16     	; 0x1738 <ks0108PutChar+0xaa>
	
	// read width data, to get the index
	for(uint8_t i=0; i<c; i++) {
		index += ks0108FontRead(ks0108Font+FONT_WIDTH_TABLE+i);
    1728:	c9 01       	movw	r24, r18
    172a:	8c 0f       	add	r24, r28
    172c:	9d 1f       	adc	r25, r29
    172e:	09 95       	icall
    1730:	08 0f       	add	r16, r24
    1732:	11 1d       	adc	r17, r1
		return 1;
	}
	c-= firstChar;
	
	// read width data, to get the index
	for(uint8_t i=0; i<c; i++) {
    1734:	f3 94       	inc	r15
    1736:	21 96       	adiw	r28, 0x01	; 1
    1738:	20 91 c6 00 	lds	r18, 0x00C6
    173c:	30 91 c7 00 	lds	r19, 0x00C7
    1740:	e0 91 bc 00 	lds	r30, 0x00BC
    1744:	f0 91 bd 00 	lds	r31, 0x00BD
    1748:	fe 14       	cp	r15, r14
    174a:	70 f3       	brcs	.-36     	; 0x1728 <ks0108PutChar+0x9a>
}

int ks0108PutChar(char c) {
	uint8_t width = 0;
	uint8_t height = ks0108FontRead(ks0108Font+FONT_HEIGHT);
	uint8_t bytes = (height+7)/8;
    174c:	cc 2d       	mov	r28, r12
    174e:	d0 e0       	ldi	r29, 0x00	; 0
    1750:	27 96       	adiw	r28, 0x07	; 7
    1752:	ce 01       	movw	r24, r28
    1754:	43 e0       	ldi	r20, 0x03	; 3
    1756:	95 95       	asr	r25
    1758:	87 95       	ror	r24
    175a:	4a 95       	dec	r20
    175c:	e1 f7       	brne	.-8      	; 0x1756 <ks0108PutChar+0xc8>
    175e:	27 97       	sbiw	r28, 0x07	; 7
	
	// read width data, to get the index
	for(uint8_t i=0; i<c; i++) {
		index += ks0108FontRead(ks0108Font+FONT_WIDTH_TABLE+i);
	}
	index = index*bytes+charCount+FONT_WIDTH_TABLE;
    1760:	38 2e       	mov	r3, r24
    1762:	ac 01       	movw	r20, r24
    1764:	40 9f       	mul	r20, r16
    1766:	c0 01       	movw	r24, r0
    1768:	41 9f       	mul	r20, r17
    176a:	90 0d       	add	r25, r0
    176c:	50 9f       	mul	r21, r16
    176e:	90 0d       	add	r25, r0
    1770:	11 24       	eor	r1, r1
    1772:	cd 2c       	mov	r12, r13
    1774:	dd 24       	eor	r13, r13
    1776:	46 e0       	ldi	r20, 0x06	; 6
    1778:	50 e0       	ldi	r21, 0x00	; 0
    177a:	c4 0e       	add	r12, r20
    177c:	d5 1e       	adc	r13, r21
    177e:	c8 0e       	add	r12, r24
    1780:	d9 1e       	adc	r13, r25
	width = ks0108FontRead(ks0108Font+FONT_WIDTH_TABLE+c);
    1782:	8e 2d       	mov	r24, r14
    1784:	90 e0       	ldi	r25, 0x00	; 0
    1786:	06 96       	adiw	r24, 0x06	; 6
    1788:	82 0f       	add	r24, r18
    178a:	93 1f       	adc	r25, r19
    178c:	09 95       	icall
    178e:	68 2e       	mov	r6, r24
    1790:	98 e0       	ldi	r25, 0x08	; 8
    1792:	e9 2e       	mov	r14, r25
    1794:	f1 2c       	mov	r15, r1
    1796:	ec 1a       	sub	r14, r28
    1798:	fd 0a       	sbc	r15, r29
    179a:	77 24       	eor	r7, r7
    179c:	88 24       	eor	r8, r8
    179e:	88 e0       	ldi	r24, 0x08	; 8
    17a0:	a8 2e       	mov	r10, r24
    17a2:	b1 2c       	mov	r11, r1
    17a4:	43 c0       	rjmp	.+134    	; 0x182c <ks0108PutChar+0x19e>
	
	// last but not least, draw the character
	for(uint8_t i=0; i<bytes; i++) {
    17a6:	4e 2c       	mov	r4, r14
    17a8:	86 01       	movw	r16, r12
    17aa:	08 0d       	add	r16, r8
    17ac:	11 1d       	adc	r17, r1
    17ae:	99 24       	eor	r9, r9
    17b0:	24 c0       	rjmp	.+72     	; 0x17fa <ks0108PutChar+0x16c>
		uint8_t page = i*width;
		for(uint8_t j=0; j<width; j++) {
			uint8_t data = ks0108FontRead(ks0108Font+index+page+j);
    17b2:	80 91 c6 00 	lds	r24, 0x00C6
    17b6:	90 91 c7 00 	lds	r25, 0x00C7
    17ba:	e0 91 bc 00 	lds	r30, 0x00BC
    17be:	f0 91 bd 00 	lds	r31, 0x00BD
    17c2:	80 0f       	add	r24, r16
    17c4:	91 1f       	adc	r25, r17
    17c6:	09 95       	icall
    17c8:	98 2f       	mov	r25, r24
			
			if(height < (i+1)*8) {
    17ca:	ca 15       	cp	r28, r10
    17cc:	db 05       	cpc	r29, r11
    17ce:	44 f4       	brge	.+16     	; 0x17e0 <ks0108PutChar+0x152>
				data >>= (i+1)*8-height;
    17d0:	90 e0       	ldi	r25, 0x00	; 0
    17d2:	04 2c       	mov	r0, r4
    17d4:	02 c0       	rjmp	.+4      	; 0x17da <ks0108PutChar+0x14c>
    17d6:	95 95       	asr	r25
    17d8:	87 95       	ror	r24
    17da:	0a 94       	dec	r0
    17dc:	e2 f7       	brpl	.-8      	; 0x17d6 <ks0108PutChar+0x148>
    17de:	98 2f       	mov	r25, r24
			}
			
			if(ks0108FontColor == BLACK) {
    17e0:	80 91 9e 00 	lds	r24, 0x009E
    17e4:	8f 3f       	cpi	r24, 0xFF	; 255
    17e6:	11 f4       	brne	.+4      	; 0x17ec <ks0108PutChar+0x15e>
				ks0108WriteData(data);
    17e8:	89 2f       	mov	r24, r25
    17ea:	02 c0       	rjmp	.+4      	; 0x17f0 <ks0108PutChar+0x162>
			} else {
				ks0108WriteData(~data);
    17ec:	89 2f       	mov	r24, r25
    17ee:	80 95       	com	r24
    17f0:	0e 94 a4 0a 	call	0x1548	; 0x1548 <ks0108WriteData>
	width = ks0108FontRead(ks0108Font+FONT_WIDTH_TABLE+c);
	
	// last but not least, draw the character
	for(uint8_t i=0; i<bytes; i++) {
		uint8_t page = i*width;
		for(uint8_t j=0; j<width; j++) {
    17f4:	93 94       	inc	r9
    17f6:	0f 5f       	subi	r16, 0xFF	; 255
    17f8:	1f 4f       	sbci	r17, 0xFF	; 255
    17fa:	96 14       	cp	r9, r6
    17fc:	d0 f2       	brcs	.-76     	; 0x17b2 <ks0108PutChar+0x124>
			} else {
				ks0108WriteData(~data);
			}
		}
		// 1px gap between chars
		if(ks0108FontColor == BLACK) {
    17fe:	80 91 9e 00 	lds	r24, 0x009E
    1802:	8f 3f       	cpi	r24, 0xFF	; 255
    1804:	11 f4       	brne	.+4      	; 0x180a <ks0108PutChar+0x17c>
			ks0108WriteData(0x00);
    1806:	80 e0       	ldi	r24, 0x00	; 0
    1808:	01 c0       	rjmp	.+2      	; 0x180c <ks0108PutChar+0x17e>
		} else {
			ks0108WriteData(0xFF);
    180a:	8f ef       	ldi	r24, 0xFF	; 255
    180c:	0e 94 a4 0a 	call	0x1548	; 0x1548 <ks0108WriteData>
		}
		ks0108GotoXY(x, ks0108Coord.y+8);
    1810:	60 91 a6 00 	lds	r22, 0x00A6
    1814:	68 5f       	subi	r22, 0xF8	; 248
    1816:	85 2d       	mov	r24, r5
    1818:	0e 94 44 0a 	call	0x1488	; 0x1488 <ks0108GotoXY>
	}
	index = index*bytes+charCount+FONT_WIDTH_TABLE;
	width = ks0108FontRead(ks0108Font+FONT_WIDTH_TABLE+c);
	
	// last but not least, draw the character
	for(uint8_t i=0; i<bytes; i++) {
    181c:	73 94       	inc	r7
    181e:	86 0c       	add	r8, r6
    1820:	88 e0       	ldi	r24, 0x08	; 8
    1822:	90 e0       	ldi	r25, 0x00	; 0
    1824:	a8 0e       	add	r10, r24
    1826:	b9 1e       	adc	r11, r25
    1828:	e8 0e       	add	r14, r24
    182a:	f9 1e       	adc	r15, r25
    182c:	73 14       	cp	r7, r3
    182e:	08 f4       	brcc	.+2      	; 0x1832 <ks0108PutChar+0x1a4>
    1830:	ba cf       	rjmp	.-140    	; 0x17a6 <ks0108PutChar+0x118>
		} else {
			ks0108WriteData(0xFF);
		}
		ks0108GotoXY(x, ks0108Coord.y+8);
	}
	ks0108GotoXY(x+width+1, y);
    1832:	53 94       	inc	r5
    1834:	85 2d       	mov	r24, r5
    1836:	86 0d       	add	r24, r6
    1838:	62 2d       	mov	r22, r2
    183a:	0e 94 44 0a 	call	0x1488	; 0x1488 <ks0108GotoXY>
    183e:	20 e0       	ldi	r18, 0x00	; 0
    1840:	30 e0       	ldi	r19, 0x00	; 0
    1842:	02 c0       	rjmp	.+4      	; 0x1848 <ks0108PutChar+0x1ba>
	
	return 0;
    1844:	21 e0       	ldi	r18, 0x01	; 1
    1846:	30 e0       	ldi	r19, 0x00	; 0
}
    1848:	c9 01       	movw	r24, r18
    184a:	df 91       	pop	r29
    184c:	cf 91       	pop	r28
    184e:	1f 91       	pop	r17
    1850:	0f 91       	pop	r16
    1852:	ff 90       	pop	r15
    1854:	ef 90       	pop	r14
    1856:	df 90       	pop	r13
    1858:	cf 90       	pop	r12
    185a:	bf 90       	pop	r11
    185c:	af 90       	pop	r10
    185e:	9f 90       	pop	r9
    1860:	8f 90       	pop	r8
    1862:	7f 90       	pop	r7
    1864:	6f 90       	pop	r6
    1866:	5f 90       	pop	r5
    1868:	4f 90       	pop	r4
    186a:	3f 90       	pop	r3
    186c:	2f 90       	pop	r2
    186e:	08 95       	ret

00001870 <ks0108Puts_P>:
		}
		str++;
	}
}

void ks0108Puts_P(PGM_P str) {
    1870:	0f 93       	push	r16
    1872:	1f 93       	push	r17
    1874:	cf 93       	push	r28
    1876:	df 93       	push	r29
    1878:	ec 01       	movw	r28, r24
	int x = ks0108Coord.x;
    187a:	00 91 a5 00 	lds	r16, 0x00A5
    187e:	17 c0       	rjmp	.+46     	; 0x18ae <ks0108Puts_P+0x3e>
	while(pgm_read_byte(str) != 0) {
		if(pgm_read_byte(str) == '\n') {
    1880:	8a 30       	cpi	r24, 0x0A	; 10
    1882:	91 f4       	brne	.+36     	; 0x18a8 <ks0108Puts_P+0x38>
			ks0108GotoXY(x, ks0108Coord.y+ks0108FontRead(ks0108Font+FONT_HEIGHT));
    1884:	10 91 a6 00 	lds	r17, 0x00A6
    1888:	80 91 c6 00 	lds	r24, 0x00C6
    188c:	90 91 c7 00 	lds	r25, 0x00C7
    1890:	e0 91 bc 00 	lds	r30, 0x00BC
    1894:	f0 91 bd 00 	lds	r31, 0x00BD
    1898:	03 96       	adiw	r24, 0x03	; 3
    189a:	09 95       	icall
    189c:	18 0f       	add	r17, r24
    189e:	80 2f       	mov	r24, r16
    18a0:	61 2f       	mov	r22, r17
    18a2:	0e 94 44 0a 	call	0x1488	; 0x1488 <ks0108GotoXY>
    18a6:	02 c0       	rjmp	.+4      	; 0x18ac <ks0108Puts_P+0x3c>
		} else {
			ks0108PutChar(pgm_read_byte(str));
    18a8:	0e 94 47 0b 	call	0x168e	; 0x168e <ks0108PutChar>
		}
		str++;
    18ac:	21 96       	adiw	r28, 0x01	; 1
	}
}

void ks0108Puts_P(PGM_P str) {
	int x = ks0108Coord.x;
	while(pgm_read_byte(str) != 0) {
    18ae:	fe 01       	movw	r30, r28
    18b0:	84 91       	lpm	r24, Z+
    18b2:	88 23       	and	r24, r24
    18b4:	29 f7       	brne	.-54     	; 0x1880 <ks0108Puts_P+0x10>
		} else {
			ks0108PutChar(pgm_read_byte(str));
		}
		str++;
	}
}
    18b6:	df 91       	pop	r29
    18b8:	cf 91       	pop	r28
    18ba:	1f 91       	pop	r17
    18bc:	0f 91       	pop	r16
    18be:	08 95       	ret

000018c0 <ks0108Puts>:
	ks0108GotoXY(x+width+1, y);
	
	return 0;
}

void ks0108Puts(char* str) {
    18c0:	0f 93       	push	r16
    18c2:	1f 93       	push	r17
    18c4:	cf 93       	push	r28
    18c6:	df 93       	push	r29
    18c8:	ec 01       	movw	r28, r24
	int x = ks0108Coord.x;
    18ca:	00 91 a5 00 	lds	r16, 0x00A5
    18ce:	17 c0       	rjmp	.+46     	; 0x18fe <ks0108Puts+0x3e>
	while(*str != 0) {
		if(*str == '\n') {
    18d0:	8a 30       	cpi	r24, 0x0A	; 10
    18d2:	91 f4       	brne	.+36     	; 0x18f8 <ks0108Puts+0x38>
			ks0108GotoXY(x, ks0108Coord.y+ks0108FontRead(ks0108Font+FONT_HEIGHT));
    18d4:	10 91 a6 00 	lds	r17, 0x00A6
    18d8:	80 91 c6 00 	lds	r24, 0x00C6
    18dc:	90 91 c7 00 	lds	r25, 0x00C7
    18e0:	e0 91 bc 00 	lds	r30, 0x00BC
    18e4:	f0 91 bd 00 	lds	r31, 0x00BD
    18e8:	03 96       	adiw	r24, 0x03	; 3
    18ea:	09 95       	icall
    18ec:	18 0f       	add	r17, r24
    18ee:	80 2f       	mov	r24, r16
    18f0:	61 2f       	mov	r22, r17
    18f2:	0e 94 44 0a 	call	0x1488	; 0x1488 <ks0108GotoXY>
    18f6:	02 c0       	rjmp	.+4      	; 0x18fc <ks0108Puts+0x3c>
		} else {
			ks0108PutChar(*str);
    18f8:	0e 94 47 0b 	call	0x168e	; 0x168e <ks0108PutChar>
		}
		str++;
    18fc:	21 96       	adiw	r28, 0x01	; 1
	return 0;
}

void ks0108Puts(char* str) {
	int x = ks0108Coord.x;
	while(*str != 0) {
    18fe:	88 81       	ld	r24, Y
    1900:	88 23       	and	r24, r24
    1902:	31 f7       	brne	.-52     	; 0x18d0 <ks0108Puts+0x10>
		} else {
			ks0108PutChar(*str);
		}
		str++;
	}
}
    1904:	df 91       	pop	r29
    1906:	cf 91       	pop	r28
    1908:	1f 91       	pop	r17
    190a:	0f 91       	pop	r16
    190c:	08 95       	ret

0000190e <ks0108SetDot>:
		ks0108InvertRect(0,0,127,63);
		ks0108Inverted = invert;
	}
}

void ks0108SetDot(uint8_t x, uint8_t y, uint8_t color) {
    190e:	0f 93       	push	r16
    1910:	1f 93       	push	r17
    1912:	16 2f       	mov	r17, r22
    1914:	04 2f       	mov	r16, r20
	uint8_t data;
	
	ks0108GotoXY(x, y-y%8);					// read data from display memory
    1916:	68 7f       	andi	r22, 0xF8	; 248
    1918:	0e 94 44 0a 	call	0x1488	; 0x1488 <ks0108GotoXY>
		data = ~data;
	return data;
}

inline uint8_t ks0108ReadData(void) {
	ks0108DoReadData(1);							// dummy read
    191c:	81 e0       	ldi	r24, 0x01	; 1
    191e:	0e 94 69 0a 	call	0x14d2	; 0x14d2 <ks0108DoReadData>
	return ks0108DoReadData(0);						// "real" read
    1922:	80 e0       	ldi	r24, 0x00	; 0
    1924:	0e 94 69 0a 	call	0x14d2	; 0x14d2 <ks0108DoReadData>
    1928:	48 2f       	mov	r20, r24
    192a:	21 2f       	mov	r18, r17
    192c:	30 e0       	ldi	r19, 0x00	; 0
	uint8_t data;
	
	ks0108GotoXY(x, y-y%8);					// read data from display memory
	data = ks0108ReadData();
	
	if(color == BLACK) {
    192e:	0f 3f       	cpi	r16, 0xFF	; 255
    1930:	59 f4       	brne	.+22     	; 0x1948 <ks0108SetDot+0x3a>
		data |= 0x01 << (y%8);				// set dot
    1932:	27 70       	andi	r18, 0x07	; 7
    1934:	30 70       	andi	r19, 0x00	; 0
    1936:	81 e0       	ldi	r24, 0x01	; 1
    1938:	90 e0       	ldi	r25, 0x00	; 0
    193a:	02 c0       	rjmp	.+4      	; 0x1940 <ks0108SetDot+0x32>
    193c:	88 0f       	add	r24, r24
    193e:	99 1f       	adc	r25, r25
    1940:	2a 95       	dec	r18
    1942:	e2 f7       	brpl	.-8      	; 0x193c <ks0108SetDot+0x2e>
    1944:	84 2b       	or	r24, r20
    1946:	0b c0       	rjmp	.+22     	; 0x195e <ks0108SetDot+0x50>
	} else {
		data &= ~(0x01 << (y%8));			// clear dot
    1948:	27 70       	andi	r18, 0x07	; 7
    194a:	30 70       	andi	r19, 0x00	; 0
    194c:	81 e0       	ldi	r24, 0x01	; 1
    194e:	90 e0       	ldi	r25, 0x00	; 0
    1950:	02 c0       	rjmp	.+4      	; 0x1956 <ks0108SetDot+0x48>
    1952:	88 0f       	add	r24, r24
    1954:	99 1f       	adc	r25, r25
    1956:	2a 95       	dec	r18
    1958:	e2 f7       	brpl	.-8      	; 0x1952 <ks0108SetDot+0x44>
    195a:	80 95       	com	r24
    195c:	84 23       	and	r24, r20
	}
	
	ks0108WriteData(data);					// write data back to display
    195e:	0e 94 a4 0a 	call	0x1548	; 0x1548 <ks0108WriteData>
}
    1962:	1f 91       	pop	r17
    1964:	0f 91       	pop	r16
    1966:	08 95       	ret

00001968 <ks0108InvertRect>:
			ks0108WriteData(data);
		}
	}
}

void ks0108InvertRect(uint8_t x, uint8_t y, uint8_t width, uint8_t height) {
    1968:	af 92       	push	r10
    196a:	bf 92       	push	r11
    196c:	cf 92       	push	r12
    196e:	df 92       	push	r13
    1970:	ef 92       	push	r14
    1972:	ff 92       	push	r15
    1974:	0f 93       	push	r16
    1976:	1f 93       	push	r17
    1978:	cf 93       	push	r28
    197a:	df 93       	push	r29
    197c:	b8 2e       	mov	r11, r24
    197e:	a4 2e       	mov	r10, r20
    1980:	e2 2e       	mov	r14, r18
	uint8_t mask, pageOffset, h, i, data, tmpData;
	height++;
    1982:	e3 94       	inc	r14
	
	pageOffset = y%8;
    1984:	46 2f       	mov	r20, r22
    1986:	47 70       	andi	r20, 0x07	; 7
	y -= pageOffset;
    1988:	f6 2e       	mov	r15, r22
    198a:	f4 1a       	sub	r15, r20
	mask = 0xFF;
	if(height < 8-pageOffset) {
    198c:	ce 2d       	mov	r28, r14
    198e:	d0 e0       	ldi	r29, 0x00	; 0
    1990:	64 2f       	mov	r22, r20
    1992:	70 e0       	ldi	r23, 0x00	; 0
    1994:	28 e0       	ldi	r18, 0x08	; 8
    1996:	30 e0       	ldi	r19, 0x00	; 0
    1998:	c9 01       	movw	r24, r18
    199a:	86 1b       	sub	r24, r22
    199c:	97 0b       	sbc	r25, r23
    199e:	c8 17       	cp	r28, r24
    19a0:	d9 07       	cpc	r29, r25
    19a2:	5c f4       	brge	.+22     	; 0x19ba <ks0108InvertRect+0x52>
		mask >>= (8-height);
    19a4:	2c 1b       	sub	r18, r28
    19a6:	3d 0b       	sbc	r19, r29
    19a8:	8f ef       	ldi	r24, 0xFF	; 255
    19aa:	90 e0       	ldi	r25, 0x00	; 0
    19ac:	02 c0       	rjmp	.+4      	; 0x19b2 <ks0108InvertRect+0x4a>
    19ae:	95 95       	asr	r25
    19b0:	87 95       	ror	r24
    19b2:	2a 95       	dec	r18
    19b4:	e2 f7       	brpl	.-8      	; 0x19ae <ks0108InvertRect+0x46>
    19b6:	0e 2d       	mov	r16, r14
    19b8:	03 c0       	rjmp	.+6      	; 0x19c0 <ks0108InvertRect+0x58>
		h = height;
	} else {
		h = 8-pageOffset;
    19ba:	08 e0       	ldi	r16, 0x08	; 8
    19bc:	04 1b       	sub	r16, r20
    19be:	8f ef       	ldi	r24, 0xFF	; 255
	}
	mask <<= pageOffset;
    19c0:	90 e0       	ldi	r25, 0x00	; 0
    19c2:	02 c0       	rjmp	.+4      	; 0x19c8 <ks0108InvertRect+0x60>
    19c4:	88 0f       	add	r24, r24
    19c6:	99 1f       	adc	r25, r25
    19c8:	6a 95       	dec	r22
    19ca:	e2 f7       	brpl	.-8      	; 0x19c4 <ks0108InvertRect+0x5c>
    19cc:	d8 2e       	mov	r13, r24
	
	ks0108GotoXY(x, y);
    19ce:	8b 2d       	mov	r24, r11
    19d0:	6f 2d       	mov	r22, r15
    19d2:	0e 94 44 0a 	call	0x1488	; 0x1488 <ks0108GotoXY>
    19d6:	10 e0       	ldi	r17, 0x00	; 0
	for(i=0; i<=width; i++) {
		data = ks0108ReadData();
		tmpData = ~data;
		data = (tmpData & mask) | (data & ~mask);
    19d8:	cd 2c       	mov	r12, r13
    19da:	c0 94       	com	r12
		data = ~data;
	return data;
}

inline uint8_t ks0108ReadData(void) {
	ks0108DoReadData(1);							// dummy read
    19dc:	81 e0       	ldi	r24, 0x01	; 1
    19de:	0e 94 69 0a 	call	0x14d2	; 0x14d2 <ks0108DoReadData>
	return ks0108DoReadData(0);						// "real" read
    19e2:	80 e0       	ldi	r24, 0x00	; 0
    19e4:	0e 94 69 0a 	call	0x14d2	; 0x14d2 <ks0108DoReadData>
    19e8:	98 2f       	mov	r25, r24
	
	ks0108GotoXY(x, y);
	for(i=0; i<=width; i++) {
		data = ks0108ReadData();
		tmpData = ~data;
		data = (tmpData & mask) | (data & ~mask);
    19ea:	8c 2d       	mov	r24, r12
    19ec:	89 23       	and	r24, r25
    19ee:	90 95       	com	r25
    19f0:	9d 21       	and	r25, r13
		ks0108WriteData(data);
    19f2:	89 2b       	or	r24, r25
    19f4:	0e 94 a4 0a 	call	0x1548	; 0x1548 <ks0108WriteData>
		h = 8-pageOffset;
	}
	mask <<= pageOffset;
	
	ks0108GotoXY(x, y);
	for(i=0; i<=width; i++) {
    19f8:	1f 5f       	subi	r17, 0xFF	; 255
    19fa:	a1 16       	cp	r10, r17
    19fc:	78 f7       	brcc	.-34     	; 0x19dc <ks0108InvertRect+0x74>
    19fe:	14 c0       	rjmp	.+40     	; 0x1a28 <ks0108InvertRect+0xc0>
		ks0108WriteData(data);
	}
	
	while(h+8 <= height) {
		h += 8;
		y += 8;
    1a00:	88 e0       	ldi	r24, 0x08	; 8
    1a02:	f8 0e       	add	r15, r24
		ks0108GotoXY(x, y);
    1a04:	8b 2d       	mov	r24, r11
    1a06:	6f 2d       	mov	r22, r15
    1a08:	0e 94 44 0a 	call	0x1488	; 0x1488 <ks0108GotoXY>
    1a0c:	10 e0       	ldi	r17, 0x00	; 0
		data = ~data;
	return data;
}

inline uint8_t ks0108ReadData(void) {
	ks0108DoReadData(1);							// dummy read
    1a0e:	81 e0       	ldi	r24, 0x01	; 1
    1a10:	0e 94 69 0a 	call	0x14d2	; 0x14d2 <ks0108DoReadData>
	return ks0108DoReadData(0);						// "real" read
    1a14:	80 e0       	ldi	r24, 0x00	; 0
    1a16:	0e 94 69 0a 	call	0x14d2	; 0x14d2 <ks0108DoReadData>
		y += 8;
		ks0108GotoXY(x, y);
		
		for(i=0; i<=width; i++) {
			data = ks0108ReadData();
			ks0108WriteData(~data);
    1a1a:	80 95       	com	r24
    1a1c:	0e 94 a4 0a 	call	0x1548	; 0x1548 <ks0108WriteData>
	while(h+8 <= height) {
		h += 8;
		y += 8;
		ks0108GotoXY(x, y);
		
		for(i=0; i<=width; i++) {
    1a20:	1f 5f       	subi	r17, 0xFF	; 255
    1a22:	a1 16       	cp	r10, r17
    1a24:	a0 f7       	brcc	.-24     	; 0x1a0e <ks0108InvertRect+0xa6>
		data = (tmpData & mask) | (data & ~mask);
		ks0108WriteData(data);
	}
	
	while(h+8 <= height) {
		h += 8;
    1a26:	08 5f       	subi	r16, 0xF8	; 248
		tmpData = ~data;
		data = (tmpData & mask) | (data & ~mask);
		ks0108WriteData(data);
	}
	
	while(h+8 <= height) {
    1a28:	20 2f       	mov	r18, r16
    1a2a:	30 e0       	ldi	r19, 0x00	; 0
    1a2c:	c9 01       	movw	r24, r18
    1a2e:	07 96       	adiw	r24, 0x07	; 7
    1a30:	8c 17       	cp	r24, r28
    1a32:	9d 07       	cpc	r25, r29
    1a34:	2c f3       	brlt	.-54     	; 0x1a00 <ks0108InvertRect+0x98>
			data = ks0108ReadData();
			ks0108WriteData(~data);
		}
	}
	
	if(h < height) {
    1a36:	0e 15       	cp	r16, r14
    1a38:	28 f5       	brcc	.+74     	; 0x1a84 <ks0108InvertRect+0x11c>
		mask = ~(0xFF << (height-h));
    1a3a:	c2 1b       	sub	r28, r18
    1a3c:	d3 0b       	sbc	r29, r19
    1a3e:	8f ef       	ldi	r24, 0xFF	; 255
    1a40:	90 e0       	ldi	r25, 0x00	; 0
    1a42:	02 c0       	rjmp	.+4      	; 0x1a48 <ks0108InvertRect+0xe0>
    1a44:	88 0f       	add	r24, r24
    1a46:	99 1f       	adc	r25, r25
    1a48:	ca 95       	dec	r28
    1a4a:	e2 f7       	brpl	.-8      	; 0x1a44 <ks0108InvertRect+0xdc>
    1a4c:	08 2f       	mov	r16, r24
    1a4e:	00 95       	com	r16
		ks0108GotoXY(x, y+8);
    1a50:	88 e0       	ldi	r24, 0x08	; 8
    1a52:	f8 0e       	add	r15, r24
    1a54:	8b 2d       	mov	r24, r11
    1a56:	6f 2d       	mov	r22, r15
    1a58:	0e 94 44 0a 	call	0x1488	; 0x1488 <ks0108GotoXY>
    1a5c:	10 e0       	ldi	r17, 0x00	; 0
		
		for(i=0; i<=width; i++) {
			data = ks0108ReadData();
			tmpData = ~data;
			data = (tmpData & mask) | (data & ~mask);
    1a5e:	f0 2e       	mov	r15, r16
    1a60:	f0 94       	com	r15
		data = ~data;
	return data;
}

inline uint8_t ks0108ReadData(void) {
	ks0108DoReadData(1);							// dummy read
    1a62:	81 e0       	ldi	r24, 0x01	; 1
    1a64:	0e 94 69 0a 	call	0x14d2	; 0x14d2 <ks0108DoReadData>
	return ks0108DoReadData(0);						// "real" read
    1a68:	80 e0       	ldi	r24, 0x00	; 0
    1a6a:	0e 94 69 0a 	call	0x14d2	; 0x14d2 <ks0108DoReadData>
    1a6e:	98 2f       	mov	r25, r24
		ks0108GotoXY(x, y+8);
		
		for(i=0; i<=width; i++) {
			data = ks0108ReadData();
			tmpData = ~data;
			data = (tmpData & mask) | (data & ~mask);
    1a70:	8f 2d       	mov	r24, r15
    1a72:	89 23       	and	r24, r25
    1a74:	90 95       	com	r25
    1a76:	90 23       	and	r25, r16
			ks0108WriteData(data);
    1a78:	89 2b       	or	r24, r25
    1a7a:	0e 94 a4 0a 	call	0x1548	; 0x1548 <ks0108WriteData>
	
	if(h < height) {
		mask = ~(0xFF << (height-h));
		ks0108GotoXY(x, y+8);
		
		for(i=0; i<=width; i++) {
    1a7e:	1f 5f       	subi	r17, 0xFF	; 255
    1a80:	a1 16       	cp	r10, r17
    1a82:	78 f7       	brcc	.-34     	; 0x1a62 <ks0108InvertRect+0xfa>
			tmpData = ~data;
			data = (tmpData & mask) | (data & ~mask);
			ks0108WriteData(data);
		}
	}
}
    1a84:	df 91       	pop	r29
    1a86:	cf 91       	pop	r28
    1a88:	1f 91       	pop	r17
    1a8a:	0f 91       	pop	r16
    1a8c:	ff 90       	pop	r15
    1a8e:	ef 90       	pop	r14
    1a90:	df 90       	pop	r13
    1a92:	cf 90       	pop	r12
    1a94:	bf 90       	pop	r11
    1a96:	af 90       	pop	r10
    1a98:	08 95       	ret

00001a9a <ks0108SetInverted>:

void ks0108SetInverted(uint8_t invert) {
    1a9a:	1f 93       	push	r17
    1a9c:	18 2f       	mov	r17, r24
	if(ks0108Inverted != invert) {
    1a9e:	80 91 60 00 	lds	r24, 0x0060
    1aa2:	81 17       	cp	r24, r17
    1aa4:	41 f0       	breq	.+16     	; 0x1ab6 <ks0108SetInverted+0x1c>
		ks0108InvertRect(0,0,127,63);
    1aa6:	80 e0       	ldi	r24, 0x00	; 0
    1aa8:	60 e0       	ldi	r22, 0x00	; 0
    1aaa:	4f e7       	ldi	r20, 0x7F	; 127
    1aac:	2f e3       	ldi	r18, 0x3F	; 63
    1aae:	0e 94 b4 0c 	call	0x1968	; 0x1968 <ks0108InvertRect>
		ks0108Inverted = invert;
    1ab2:	10 93 60 00 	sts	0x0060, r17
	}
}
    1ab6:	1f 91       	pop	r17
    1ab8:	08 95       	ret

00001aba <ks0108FillRect>:
}

/*
 * Hardware-Functions 
 */
void ks0108FillRect(uint8_t x, uint8_t y, uint8_t width, uint8_t height, uint8_t color) {
    1aba:	9f 92       	push	r9
    1abc:	af 92       	push	r10
    1abe:	bf 92       	push	r11
    1ac0:	cf 92       	push	r12
    1ac2:	df 92       	push	r13
    1ac4:	ef 92       	push	r14
    1ac6:	ff 92       	push	r15
    1ac8:	0f 93       	push	r16
    1aca:	1f 93       	push	r17
    1acc:	cf 93       	push	r28
    1ace:	df 93       	push	r29
    1ad0:	b8 2e       	mov	r11, r24
    1ad2:	94 2e       	mov	r9, r20
    1ad4:	e2 2e       	mov	r14, r18
    1ad6:	a0 2e       	mov	r10, r16
	uint8_t mask, pageOffset, h, i, data;
	height++;
    1ad8:	e3 94       	inc	r14
	
	pageOffset = y%8;
    1ada:	46 2f       	mov	r20, r22
    1adc:	47 70       	andi	r20, 0x07	; 7
	y -= pageOffset;
    1ade:	f6 2e       	mov	r15, r22
    1ae0:	f4 1a       	sub	r15, r20
	mask = 0xFF;
	if(height < 8-pageOffset) {
    1ae2:	ce 2d       	mov	r28, r14
    1ae4:	d0 e0       	ldi	r29, 0x00	; 0
    1ae6:	64 2f       	mov	r22, r20
    1ae8:	70 e0       	ldi	r23, 0x00	; 0
    1aea:	28 e0       	ldi	r18, 0x08	; 8
    1aec:	30 e0       	ldi	r19, 0x00	; 0
    1aee:	c9 01       	movw	r24, r18
    1af0:	86 1b       	sub	r24, r22
    1af2:	97 0b       	sbc	r25, r23
    1af4:	c8 17       	cp	r28, r24
    1af6:	d9 07       	cpc	r29, r25
    1af8:	5c f4       	brge	.+22     	; 0x1b10 <ks0108FillRect+0x56>
		mask >>= (8-height);
    1afa:	2c 1b       	sub	r18, r28
    1afc:	3d 0b       	sbc	r19, r29
    1afe:	8f ef       	ldi	r24, 0xFF	; 255
    1b00:	90 e0       	ldi	r25, 0x00	; 0
    1b02:	02 c0       	rjmp	.+4      	; 0x1b08 <ks0108FillRect+0x4e>
    1b04:	95 95       	asr	r25
    1b06:	87 95       	ror	r24
    1b08:	2a 95       	dec	r18
    1b0a:	e2 f7       	brpl	.-8      	; 0x1b04 <ks0108FillRect+0x4a>
    1b0c:	0e 2d       	mov	r16, r14
    1b0e:	03 c0       	rjmp	.+6      	; 0x1b16 <ks0108FillRect+0x5c>
		h = height;
	} else {
		h = 8-pageOffset;
    1b10:	08 e0       	ldi	r16, 0x08	; 8
    1b12:	04 1b       	sub	r16, r20
    1b14:	8f ef       	ldi	r24, 0xFF	; 255
	}
	mask <<= pageOffset;
    1b16:	90 e0       	ldi	r25, 0x00	; 0
    1b18:	02 c0       	rjmp	.+4      	; 0x1b1e <ks0108FillRect+0x64>
    1b1a:	88 0f       	add	r24, r24
    1b1c:	99 1f       	adc	r25, r25
    1b1e:	6a 95       	dec	r22
    1b20:	e2 f7       	brpl	.-8      	; 0x1b1a <ks0108FillRect+0x60>
    1b22:	d8 2e       	mov	r13, r24
	
	ks0108GotoXY(x, y);
    1b24:	8b 2d       	mov	r24, r11
    1b26:	6f 2d       	mov	r22, r15
    1b28:	0e 94 44 0a 	call	0x1488	; 0x1488 <ks0108GotoXY>
    1b2c:	10 e0       	ldi	r17, 0x00	; 0
		data = ks0108ReadData();
		
		if(color == BLACK) {
			data |= mask;
		} else {
			data &= ~mask;
    1b2e:	cd 2c       	mov	r12, r13
    1b30:	c0 94       	com	r12
		data = ~data;
	return data;
}

inline uint8_t ks0108ReadData(void) {
	ks0108DoReadData(1);							// dummy read
    1b32:	81 e0       	ldi	r24, 0x01	; 1
    1b34:	0e 94 69 0a 	call	0x14d2	; 0x14d2 <ks0108DoReadData>
	return ks0108DoReadData(0);						// "real" read
    1b38:	80 e0       	ldi	r24, 0x00	; 0
    1b3a:	0e 94 69 0a 	call	0x14d2	; 0x14d2 <ks0108DoReadData>
	
	ks0108GotoXY(x, y);
	for(i=0; i<=width; i++) {
		data = ks0108ReadData();
		
		if(color == BLACK) {
    1b3e:	9f ef       	ldi	r25, 0xFF	; 255
    1b40:	a9 16       	cp	r10, r25
    1b42:	11 f4       	brne	.+4      	; 0x1b48 <ks0108FillRect+0x8e>
			data |= mask;
    1b44:	8d 29       	or	r24, r13
    1b46:	01 c0       	rjmp	.+2      	; 0x1b4a <ks0108FillRect+0x90>
		} else {
			data &= ~mask;
    1b48:	8c 21       	and	r24, r12
		}

		ks0108WriteData(data);
    1b4a:	0e 94 a4 0a 	call	0x1548	; 0x1548 <ks0108WriteData>
		h = 8-pageOffset;
	}
	mask <<= pageOffset;
	
	ks0108GotoXY(x, y);
	for(i=0; i<=width; i++) {
    1b4e:	1f 5f       	subi	r17, 0xFF	; 255
    1b50:	91 16       	cp	r9, r17
    1b52:	78 f7       	brcc	.-34     	; 0x1b32 <ks0108FillRect+0x78>
    1b54:	0e c0       	rjmp	.+28     	; 0x1b72 <ks0108FillRect+0xb8>
		ks0108WriteData(data);
	}
	
	while(h+8 <= height) {
		h += 8;
		y += 8;
    1b56:	88 e0       	ldi	r24, 0x08	; 8
    1b58:	f8 0e       	add	r15, r24
		ks0108GotoXY(x, y);
    1b5a:	8b 2d       	mov	r24, r11
    1b5c:	6f 2d       	mov	r22, r15
    1b5e:	0e 94 44 0a 	call	0x1488	; 0x1488 <ks0108GotoXY>
    1b62:	10 e0       	ldi	r17, 0x00	; 0
		
		for(i=0; i<=width; i++) {
			ks0108WriteData(color);
    1b64:	8a 2d       	mov	r24, r10
    1b66:	0e 94 a4 0a 	call	0x1548	; 0x1548 <ks0108WriteData>
	while(h+8 <= height) {
		h += 8;
		y += 8;
		ks0108GotoXY(x, y);
		
		for(i=0; i<=width; i++) {
    1b6a:	1f 5f       	subi	r17, 0xFF	; 255
    1b6c:	91 16       	cp	r9, r17
    1b6e:	d0 f7       	brcc	.-12     	; 0x1b64 <ks0108FillRect+0xaa>

		ks0108WriteData(data);
	}
	
	while(h+8 <= height) {
		h += 8;
    1b70:	08 5f       	subi	r16, 0xF8	; 248
		}

		ks0108WriteData(data);
	}
	
	while(h+8 <= height) {
    1b72:	20 2f       	mov	r18, r16
    1b74:	30 e0       	ldi	r19, 0x00	; 0
    1b76:	c9 01       	movw	r24, r18
    1b78:	07 96       	adiw	r24, 0x07	; 7
    1b7a:	8c 17       	cp	r24, r28
    1b7c:	9d 07       	cpc	r25, r29
    1b7e:	5c f3       	brlt	.-42     	; 0x1b56 <ks0108FillRect+0x9c>
		for(i=0; i<=width; i++) {
			ks0108WriteData(color);
		}
	}
	
	if(h < height) {
    1b80:	0e 15       	cp	r16, r14
    1b82:	28 f5       	brcc	.+74     	; 0x1bce <ks0108FillRect+0x114>
		mask = ~(0xFF << (height-h));
    1b84:	c2 1b       	sub	r28, r18
    1b86:	d3 0b       	sbc	r29, r19
    1b88:	8f ef       	ldi	r24, 0xFF	; 255
    1b8a:	90 e0       	ldi	r25, 0x00	; 0
    1b8c:	02 c0       	rjmp	.+4      	; 0x1b92 <ks0108FillRect+0xd8>
    1b8e:	88 0f       	add	r24, r24
    1b90:	99 1f       	adc	r25, r25
    1b92:	ca 95       	dec	r28
    1b94:	e2 f7       	brpl	.-8      	; 0x1b8e <ks0108FillRect+0xd4>
    1b96:	e8 2e       	mov	r14, r24
    1b98:	e0 94       	com	r14
		ks0108GotoXY(x, y+8);
    1b9a:	98 e0       	ldi	r25, 0x08	; 8
    1b9c:	f9 0e       	add	r15, r25
    1b9e:	8b 2d       	mov	r24, r11
    1ba0:	6f 2d       	mov	r22, r15
    1ba2:	0e 94 44 0a 	call	0x1488	; 0x1488 <ks0108GotoXY>
    1ba6:	10 e0       	ldi	r17, 0x00	; 0
			data = ks0108ReadData();
		
			if(color == BLACK) {
				data |= mask;
			} else {
				data &= ~mask;
    1ba8:	fe 2c       	mov	r15, r14
    1baa:	f0 94       	com	r15
		data = ~data;
	return data;
}

inline uint8_t ks0108ReadData(void) {
	ks0108DoReadData(1);							// dummy read
    1bac:	81 e0       	ldi	r24, 0x01	; 1
    1bae:	0e 94 69 0a 	call	0x14d2	; 0x14d2 <ks0108DoReadData>
	return ks0108DoReadData(0);						// "real" read
    1bb2:	80 e0       	ldi	r24, 0x00	; 0
    1bb4:	0e 94 69 0a 	call	0x14d2	; 0x14d2 <ks0108DoReadData>
		ks0108GotoXY(x, y+8);
		
		for(i=0; i<=width; i++) {
			data = ks0108ReadData();
		
			if(color == BLACK) {
    1bb8:	9f ef       	ldi	r25, 0xFF	; 255
    1bba:	a9 16       	cp	r10, r25
    1bbc:	11 f4       	brne	.+4      	; 0x1bc2 <ks0108FillRect+0x108>
				data |= mask;
    1bbe:	8e 29       	or	r24, r14
    1bc0:	01 c0       	rjmp	.+2      	; 0x1bc4 <ks0108FillRect+0x10a>
			} else {
				data &= ~mask;
    1bc2:	8f 21       	and	r24, r15
			}
	
			ks0108WriteData(data);
    1bc4:	0e 94 a4 0a 	call	0x1548	; 0x1548 <ks0108WriteData>
	
	if(h < height) {
		mask = ~(0xFF << (height-h));
		ks0108GotoXY(x, y+8);
		
		for(i=0; i<=width; i++) {
    1bc8:	1f 5f       	subi	r17, 0xFF	; 255
    1bca:	91 16       	cp	r9, r17
    1bcc:	78 f7       	brcc	.-34     	; 0x1bac <ks0108FillRect+0xf2>
			}
	
			ks0108WriteData(data);
		}
	}
}
    1bce:	df 91       	pop	r29
    1bd0:	cf 91       	pop	r28
    1bd2:	1f 91       	pop	r17
    1bd4:	0f 91       	pop	r16
    1bd6:	ff 90       	pop	r15
    1bd8:	ef 90       	pop	r14
    1bda:	df 90       	pop	r13
    1bdc:	cf 90       	pop	r12
    1bde:	bf 90       	pop	r11
    1be0:	af 90       	pop	r10
    1be2:	9f 90       	pop	r9
    1be4:	08 95       	ret

00001be6 <ks0108Init>:
	cmd = LCD_SET_PAGE | ks0108Coord.page;			// set y address on both chips
	ks0108WriteCommand(cmd, CHIP1);
	ks0108WriteCommand(cmd, CHIP2);
}

void ks0108Init(uint8_t invert) {
    1be6:	0f 93       	push	r16
	ks0108Coord.x = 0;
    1be8:	10 92 a5 00 	sts	0x00A5, r1
	ks0108Coord.y = 0;
    1bec:	10 92 a6 00 	sts	0x00A6, r1
	ks0108Coord.page = 0;
    1bf0:	10 92 a7 00 	sts	0x00A7, r1
	
	ks0108Inverted = invert;
    1bf4:	80 93 60 00 	sts	0x0060, r24
	
	LCD_CMD_DIR = 0xFF;								// command port is output
    1bf8:	8f ef       	ldi	r24, 0xFF	; 255
    1bfa:	84 bb       	out	0x14, r24	; 20
	ks0108WriteCommand(LCD_ON, CHIP1);				// power on
    1bfc:	8f e3       	ldi	r24, 0x3F	; 63
    1bfe:	60 e0       	ldi	r22, 0x00	; 0
    1c00:	0e 94 1e 0a 	call	0x143c	; 0x143c <ks0108WriteCommand>
	ks0108WriteCommand(LCD_ON, CHIP2);
    1c04:	8f e3       	ldi	r24, 0x3F	; 63
    1c06:	61 e0       	ldi	r22, 0x01	; 1
    1c08:	0e 94 1e 0a 	call	0x143c	; 0x143c <ks0108WriteCommand>
	
	ks0108WriteCommand(LCD_DISP_START, CHIP1);		// display start line = 0
    1c0c:	80 ec       	ldi	r24, 0xC0	; 192
    1c0e:	60 e0       	ldi	r22, 0x00	; 0
    1c10:	0e 94 1e 0a 	call	0x143c	; 0x143c <ks0108WriteCommand>
	ks0108WriteCommand(LCD_DISP_START, CHIP2);
    1c14:	80 ec       	ldi	r24, 0xC0	; 192
    1c16:	61 e0       	ldi	r22, 0x01	; 1
    1c18:	0e 94 1e 0a 	call	0x143c	; 0x143c <ks0108WriteCommand>
	ks0108ClearScreen();							// display clear
    1c1c:	80 e0       	ldi	r24, 0x00	; 0
    1c1e:	60 e0       	ldi	r22, 0x00	; 0
    1c20:	4f e7       	ldi	r20, 0x7F	; 127
    1c22:	2f e3       	ldi	r18, 0x3F	; 63
    1c24:	00 e0       	ldi	r16, 0x00	; 0
    1c26:	0e 94 5d 0d 	call	0x1aba	; 0x1aba <ks0108FillRect>
	ks0108GotoXY(0,0);
    1c2a:	80 e0       	ldi	r24, 0x00	; 0
    1c2c:	60 e0       	ldi	r22, 0x00	; 0
    1c2e:	0e 94 44 0a 	call	0x1488	; 0x1488 <ks0108GotoXY>
}
    1c32:	0f 91       	pop	r16
    1c34:	08 95       	ret

00001c36 <ks0108DrawRoundRect>:
	ks0108DrawHoriLine(x, y+height, width, color);		// bottom
	ks0108DrawVertLine(x, y, height, color);			// left
	ks0108DrawVertLine(x+width, y, height, color);		// right
}

void ks0108DrawRoundRect(uint8_t x, uint8_t y, uint8_t width, uint8_t height, uint8_t radius, uint8_t color) {
    1c36:	2f 92       	push	r2
    1c38:	3f 92       	push	r3
    1c3a:	4f 92       	push	r4
    1c3c:	5f 92       	push	r5
    1c3e:	6f 92       	push	r6
    1c40:	7f 92       	push	r7
    1c42:	8f 92       	push	r8
    1c44:	9f 92       	push	r9
    1c46:	af 92       	push	r10
    1c48:	bf 92       	push	r11
    1c4a:	cf 92       	push	r12
    1c4c:	df 92       	push	r13
    1c4e:	ef 92       	push	r14
    1c50:	ff 92       	push	r15
    1c52:	0f 93       	push	r16
    1c54:	1f 93       	push	r17
    1c56:	df 93       	push	r29
    1c58:	cf 93       	push	r28
    1c5a:	cd b7       	in	r28, 0x3d	; 61
    1c5c:	de b7       	in	r29, 0x3e	; 62
    1c5e:	2c 97       	sbiw	r28, 0x0c	; 12
    1c60:	0f b6       	in	r0, 0x3f	; 63
    1c62:	f8 94       	cli
    1c64:	de bf       	out	0x3e, r29	; 62
    1c66:	0f be       	out	0x3f, r0	; 63
    1c68:	cd bf       	out	0x3d, r28	; 61
    1c6a:	8f 83       	std	Y+7, r24	; 0x07
    1c6c:	68 87       	std	Y+8, r22	; 0x08
    1c6e:	49 87       	std	Y+9, r20	; 0x09
    1c70:	2a 87       	std	Y+10, r18	; 0x0a
  	int16_t tSwitch, x1 = 0, y1 = radius;
    1c72:	c0 2e       	mov	r12, r16
    1c74:	dd 24       	eor	r13, r13
  	tSwitch = 3 - 2 * radius;
    1c76:	c6 01       	movw	r24, r12
    1c78:	88 0f       	add	r24, r24
    1c7a:	99 1f       	adc	r25, r25
    1c7c:	22 27       	eor	r18, r18
    1c7e:	33 27       	eor	r19, r19
    1c80:	28 1b       	sub	r18, r24
    1c82:	39 0b       	sbc	r19, r25
    1c84:	3e 83       	std	Y+6, r19	; 0x06
    1c86:	2d 83       	std	Y+5, r18	; 0x05
    1c88:	2d 5f       	subi	r18, 0xFD	; 253
    1c8a:	3f 4f       	sbci	r19, 0xFF	; 255
    1c8c:	3c 87       	std	Y+12, r19	; 0x0c
    1c8e:	2b 87       	std	Y+11, r18	; 0x0b
    1c90:	3f 80       	ldd	r3, Y+7	; 0x07
    1c92:	30 0e       	add	r3, r16
    1c94:	26 2e       	mov	r2, r22
    1c96:	20 0e       	add	r2, r16
	ks0108DrawHoriLine(x, y+height, width, color);		// bottom
	ks0108DrawVertLine(x, y, height, color);			// left
	ks0108DrawVertLine(x+width, y, height, color);		// right
}

void ks0108DrawRoundRect(uint8_t x, uint8_t y, uint8_t width, uint8_t height, uint8_t radius, uint8_t color) {
    1c98:	34 2f       	mov	r19, r20
    1c9a:	8f 81       	ldd	r24, Y+7	; 0x07
    1c9c:	38 0f       	add	r19, r24
    1c9e:	3b 83       	std	Y+3, r19	; 0x03
    1ca0:	30 1b       	sub	r19, r16
    1ca2:	3c 83       	std	Y+4, r19	; 0x04
    1ca4:	9a 85       	ldd	r25, Y+10	; 0x0a
    1ca6:	96 0f       	add	r25, r22
    1ca8:	99 83       	std	Y+1, r25	; 0x01
    1caa:	90 1b       	sub	r25, r16
    1cac:	9a 83       	std	Y+2, r25	; 0x02
    1cae:	43 2c       	mov	r4, r3
    1cb0:	52 2c       	mov	r5, r2
    1cb2:	63 2e       	mov	r6, r19
    1cb4:	79 2e       	mov	r7, r25
    1cb6:	aa 24       	eor	r10, r10
    1cb8:	bb 24       	eor	r11, r11
    1cba:	88 24       	eor	r8, r8
    1cbc:	99 24       	eor	r9, r9
  	int16_t tSwitch, x1 = 0, y1 = radius;
  	tSwitch = 3 - 2 * radius;
	
	while (x1 <= y1) {
	    ks0108SetDot(x+radius - x1, y+radius - y1, color);
    1cbe:	1c 2d       	mov	r17, r12
    1cc0:	02 2d       	mov	r16, r2
    1cc2:	0c 19       	sub	r16, r12
    1cc4:	84 2d       	mov	r24, r4
    1cc6:	60 2f       	mov	r22, r16
    1cc8:	4e 2d       	mov	r20, r14
    1cca:	0e 94 87 0c 	call	0x190e	; 0x190e <ks0108SetDot>
	    ks0108SetDot(x+radius - y1, y+radius - x1, color);
    1cce:	f3 2c       	mov	r15, r3
    1cd0:	fc 18       	sub	r15, r12
    1cd2:	8f 2d       	mov	r24, r15
    1cd4:	65 2d       	mov	r22, r5
    1cd6:	4e 2d       	mov	r20, r14
    1cd8:	0e 94 87 0c 	call	0x190e	; 0x190e <ks0108SetDot>

	    ks0108SetDot(x+width-radius + x1, y+radius - y1, color);
    1cdc:	86 2d       	mov	r24, r6
    1cde:	60 2f       	mov	r22, r16
    1ce0:	4e 2d       	mov	r20, r14
    1ce2:	0e 94 87 0c 	call	0x190e	; 0x190e <ks0108SetDot>
	    ks0108SetDot(x+width-radius + y1, y+radius - x1, color);
    1ce6:	0c 81       	ldd	r16, Y+4	; 0x04
    1ce8:	0c 0d       	add	r16, r12
    1cea:	80 2f       	mov	r24, r16
    1cec:	65 2d       	mov	r22, r5
    1cee:	4e 2d       	mov	r20, r14
    1cf0:	0e 94 87 0c 	call	0x190e	; 0x190e <ks0108SetDot>
	    
	    ks0108SetDot(x+width-radius + x1, y+height-radius + y1, color);
    1cf4:	fa 81       	ldd	r31, Y+2	; 0x02
    1cf6:	1f 0f       	add	r17, r31
    1cf8:	86 2d       	mov	r24, r6
    1cfa:	61 2f       	mov	r22, r17
    1cfc:	4e 2d       	mov	r20, r14
    1cfe:	0e 94 87 0c 	call	0x190e	; 0x190e <ks0108SetDot>
	    ks0108SetDot(x+width-radius + y1, y+height-radius + x1, color);
    1d02:	80 2f       	mov	r24, r16
    1d04:	67 2d       	mov	r22, r7
    1d06:	4e 2d       	mov	r20, r14
    1d08:	0e 94 87 0c 	call	0x190e	; 0x190e <ks0108SetDot>

	    ks0108SetDot(x+radius - x1, y+height-radius + y1, color);
    1d0c:	84 2d       	mov	r24, r4
    1d0e:	61 2f       	mov	r22, r17
    1d10:	4e 2d       	mov	r20, r14
    1d12:	0e 94 87 0c 	call	0x190e	; 0x190e <ks0108SetDot>
	    ks0108SetDot(x+radius - y1, y+height-radius + x1, color);
    1d16:	8f 2d       	mov	r24, r15
    1d18:	67 2d       	mov	r22, r7
    1d1a:	4e 2d       	mov	r20, r14
    1d1c:	0e 94 87 0c 	call	0x190e	; 0x190e <ks0108SetDot>

	    if (tSwitch < 0) {
    1d20:	2b 85       	ldd	r18, Y+11	; 0x0b
    1d22:	3c 85       	ldd	r19, Y+12	; 0x0c
    1d24:	37 ff       	sbrs	r19, 7
    1d26:	07 c0       	rjmp	.+14     	; 0x1d36 <ks0108DrawRoundRect+0x100>
	    	tSwitch += (4 * x1 + 6);
    1d28:	2a 5f       	subi	r18, 0xFA	; 250
    1d2a:	3f 4f       	sbci	r19, 0xFF	; 255
    1d2c:	28 0d       	add	r18, r8
    1d2e:	39 1d       	adc	r19, r9
    1d30:	3c 87       	std	Y+12, r19	; 0x0c
    1d32:	2b 87       	std	Y+11, r18	; 0x0b
    1d34:	15 c0       	rjmp	.+42     	; 0x1d60 <ks0108DrawRoundRect+0x12a>
	    } else {
	    	tSwitch += (4 * (x1 - y1) + 10);
    1d36:	8b 85       	ldd	r24, Y+11	; 0x0b
    1d38:	9c 85       	ldd	r25, Y+12	; 0x0c
    1d3a:	0a 96       	adiw	r24, 0x0a	; 10
    1d3c:	9c 87       	std	Y+12, r25	; 0x0c
    1d3e:	8b 87       	std	Y+11, r24	; 0x0b
    1d40:	c5 01       	movw	r24, r10
    1d42:	8c 19       	sub	r24, r12
    1d44:	9d 09       	sbc	r25, r13
    1d46:	88 0f       	add	r24, r24
    1d48:	99 1f       	adc	r25, r25
    1d4a:	88 0f       	add	r24, r24
    1d4c:	99 1f       	adc	r25, r25
    1d4e:	eb 85       	ldd	r30, Y+11	; 0x0b
    1d50:	fc 85       	ldd	r31, Y+12	; 0x0c
    1d52:	e8 0f       	add	r30, r24
    1d54:	f9 1f       	adc	r31, r25
    1d56:	fc 87       	std	Y+12, r31	; 0x0c
    1d58:	eb 87       	std	Y+11, r30	; 0x0b
	    	y1--;
    1d5a:	08 94       	sec
    1d5c:	c1 08       	sbc	r12, r1
    1d5e:	d1 08       	sbc	r13, r1
	    }
	    x1++;
    1d60:	08 94       	sec
    1d62:	a1 1c       	adc	r10, r1
    1d64:	b1 1c       	adc	r11, r1
    1d66:	4a 94       	dec	r4
    1d68:	5a 94       	dec	r5
    1d6a:	63 94       	inc	r6
    1d6c:	73 94       	inc	r7
    1d6e:	24 e0       	ldi	r18, 0x04	; 4
    1d70:	30 e0       	ldi	r19, 0x00	; 0
    1d72:	82 0e       	add	r8, r18
    1d74:	93 1e       	adc	r9, r19

void ks0108DrawRoundRect(uint8_t x, uint8_t y, uint8_t width, uint8_t height, uint8_t radius, uint8_t color) {
  	int16_t tSwitch, x1 = 0, y1 = radius;
  	tSwitch = 3 - 2 * radius;
	
	while (x1 <= y1) {
    1d76:	ca 14       	cp	r12, r10
    1d78:	db 04       	cpc	r13, r11
    1d7a:	0c f0       	brlt	.+2      	; 0x1d7e <ks0108DrawRoundRect+0x148>
    1d7c:	a0 cf       	rjmp	.-192    	; 0x1cbe <ks0108DrawRoundRect+0x88>
	    	y1--;
	    }
	    x1++;
	}
	  	
	ks0108DrawHoriLine(x+radius, y, width-(2*radius), color);			// top
    1d7e:	1d 81       	ldd	r17, Y+5	; 0x05
    1d80:	f9 84       	ldd	r15, Y+9	; 0x09
    1d82:	f1 0e       	add	r15, r17
    1d84:	83 2d       	mov	r24, r3
    1d86:	68 85       	ldd	r22, Y+8	; 0x08
    1d88:	4f 2d       	mov	r20, r15
    1d8a:	20 e0       	ldi	r18, 0x00	; 0
    1d8c:	0e 2d       	mov	r16, r14
    1d8e:	0e 94 5d 0d 	call	0x1aba	; 0x1aba <ks0108FillRect>
	ks0108DrawHoriLine(x+radius, y+height, width-(2*radius), color);	// bottom
    1d92:	83 2d       	mov	r24, r3
    1d94:	69 81       	ldd	r22, Y+1	; 0x01
    1d96:	4f 2d       	mov	r20, r15
    1d98:	20 e0       	ldi	r18, 0x00	; 0
    1d9a:	0e 94 5d 0d 	call	0x1aba	; 0x1aba <ks0108FillRect>
	ks0108DrawVertLine(x, y+radius, height-(2*radius), color);			// left
    1d9e:	3a 85       	ldd	r19, Y+10	; 0x0a
    1da0:	13 0f       	add	r17, r19
    1da2:	8f 81       	ldd	r24, Y+7	; 0x07
    1da4:	62 2d       	mov	r22, r2
    1da6:	40 e0       	ldi	r20, 0x00	; 0
    1da8:	21 2f       	mov	r18, r17
    1daa:	0e 94 5d 0d 	call	0x1aba	; 0x1aba <ks0108FillRect>
	ks0108DrawVertLine(x+width, y+radius, height-(2*radius), color);	// right
    1dae:	8b 81       	ldd	r24, Y+3	; 0x03
    1db0:	62 2d       	mov	r22, r2
    1db2:	40 e0       	ldi	r20, 0x00	; 0
    1db4:	21 2f       	mov	r18, r17
    1db6:	0e 94 5d 0d 	call	0x1aba	; 0x1aba <ks0108FillRect>
}
    1dba:	2c 96       	adiw	r28, 0x0c	; 12
    1dbc:	0f b6       	in	r0, 0x3f	; 63
    1dbe:	f8 94       	cli
    1dc0:	de bf       	out	0x3e, r29	; 62
    1dc2:	0f be       	out	0x3f, r0	; 63
    1dc4:	cd bf       	out	0x3d, r28	; 61
    1dc6:	cf 91       	pop	r28
    1dc8:	df 91       	pop	r29
    1dca:	1f 91       	pop	r17
    1dcc:	0f 91       	pop	r16
    1dce:	ff 90       	pop	r15
    1dd0:	ef 90       	pop	r14
    1dd2:	df 90       	pop	r13
    1dd4:	cf 90       	pop	r12
    1dd6:	bf 90       	pop	r11
    1dd8:	af 90       	pop	r10
    1dda:	9f 90       	pop	r9
    1ddc:	8f 90       	pop	r8
    1dde:	7f 90       	pop	r7
    1de0:	6f 90       	pop	r6
    1de2:	5f 90       	pop	r5
    1de4:	4f 90       	pop	r4
    1de6:	3f 90       	pop	r3
    1de8:	2f 90       	pop	r2
    1dea:	08 95       	ret

00001dec <ks0108DrawRect>:
			}
		}
	}
}

void ks0108DrawRect(uint8_t x, uint8_t y, uint8_t width, uint8_t height, uint8_t color) {
    1dec:	cf 92       	push	r12
    1dee:	df 92       	push	r13
    1df0:	ef 92       	push	r14
    1df2:	ff 92       	push	r15
    1df4:	0f 93       	push	r16
    1df6:	1f 93       	push	r17
    1df8:	18 2f       	mov	r17, r24
    1dfa:	f6 2e       	mov	r15, r22
    1dfc:	d4 2e       	mov	r13, r20
    1dfe:	c2 2e       	mov	r12, r18
	ks0108DrawHoriLine(x, y, width, color);				// top
    1e00:	20 e0       	ldi	r18, 0x00	; 0
    1e02:	0e 94 5d 0d 	call	0x1aba	; 0x1aba <ks0108FillRect>
	ks0108DrawHoriLine(x, y+height, width, color);		// bottom
    1e06:	6c 2d       	mov	r22, r12
    1e08:	6f 0d       	add	r22, r15
    1e0a:	81 2f       	mov	r24, r17
    1e0c:	4d 2d       	mov	r20, r13
    1e0e:	20 e0       	ldi	r18, 0x00	; 0
    1e10:	0e 94 5d 0d 	call	0x1aba	; 0x1aba <ks0108FillRect>
	ks0108DrawVertLine(x, y, height, color);			// left
    1e14:	81 2f       	mov	r24, r17
    1e16:	6f 2d       	mov	r22, r15
    1e18:	40 e0       	ldi	r20, 0x00	; 0
    1e1a:	2c 2d       	mov	r18, r12
    1e1c:	0e 94 5d 0d 	call	0x1aba	; 0x1aba <ks0108FillRect>
	ks0108DrawVertLine(x+width, y, height, color);		// right
    1e20:	8d 2d       	mov	r24, r13
    1e22:	81 0f       	add	r24, r17
    1e24:	6f 2d       	mov	r22, r15
    1e26:	40 e0       	ldi	r20, 0x00	; 0
    1e28:	2c 2d       	mov	r18, r12
    1e2a:	0e 94 5d 0d 	call	0x1aba	; 0x1aba <ks0108FillRect>
}
    1e2e:	1f 91       	pop	r17
    1e30:	0f 91       	pop	r16
    1e32:	ff 90       	pop	r15
    1e34:	ef 90       	pop	r14
    1e36:	df 90       	pop	r13
    1e38:	cf 90       	pop	r12
    1e3a:	08 95       	ret

00001e3c <ks0108DrawLine>:
uint8_t				ks0108Inverted=0;
ks0108FontCallback	ks0108FontRead;
uint8_t				ks0108FontColor;
const uint8_t*		ks0108Font;

void ks0108DrawLine(uint8_t x1, uint8_t y1, uint8_t x2, uint8_t y2, uint8_t color) {
    1e3c:	4f 92       	push	r4
    1e3e:	5f 92       	push	r5
    1e40:	6f 92       	push	r6
    1e42:	7f 92       	push	r7
    1e44:	8f 92       	push	r8
    1e46:	9f 92       	push	r9
    1e48:	af 92       	push	r10
    1e4a:	bf 92       	push	r11
    1e4c:	cf 92       	push	r12
    1e4e:	df 92       	push	r13
    1e50:	ef 92       	push	r14
    1e52:	ff 92       	push	r15
    1e54:	0f 93       	push	r16
    1e56:	1f 93       	push	r17
    1e58:	cf 93       	push	r28
    1e5a:	df 93       	push	r29
    1e5c:	d8 2e       	mov	r13, r24
    1e5e:	c6 2e       	mov	r12, r22
    1e60:	f4 2e       	mov	r15, r20
    1e62:	e2 2e       	mov	r14, r18
    1e64:	50 2e       	mov	r5, r16
	int16_t m;
	
	//
	// vertical line
	//
	if(x1 == x2) {
    1e66:	84 17       	cp	r24, r20
    1e68:	51 f4       	brne	.+20     	; 0x1e7e <ks0108DrawLine+0x42>
		// x1|y1 must be the upper point
		if(y1 > y2) {
    1e6a:	26 17       	cp	r18, r22
    1e6c:	10 f4       	brcc	.+4      	; 0x1e72 <ks0108DrawLine+0x36>
    1e6e:	e6 2e       	mov	r14, r22
    1e70:	c2 2e       	mov	r12, r18
			yTmp = y1;
			y1 = y2;
			y2 = yTmp;
		}
		ks0108DrawVertLine(x1, y1, y2-y1, color);
    1e72:	ec 18       	sub	r14, r12
    1e74:	8d 2d       	mov	r24, r13
    1e76:	6c 2d       	mov	r22, r12
    1e78:	40 e0       	ldi	r20, 0x00	; 0
    1e7a:	2e 2d       	mov	r18, r14
    1e7c:	0b c0       	rjmp	.+22     	; 0x1e94 <ks0108DrawLine+0x58>
	
	//
	// horizontal line
	//
	} else if(y1 == y2) {	
    1e7e:	62 17       	cp	r22, r18
    1e80:	69 f4       	brne	.+26     	; 0x1e9c <ks0108DrawLine+0x60>
		// x1|y1 must be the left point
		if(x1 > x2) {
    1e82:	48 17       	cp	r20, r24
    1e84:	10 f4       	brcc	.+4      	; 0x1e8a <ks0108DrawLine+0x4e>
    1e86:	fd 2c       	mov	r15, r13
    1e88:	d4 2e       	mov	r13, r20
			xTmp = x1;
			x1 = x2;
			x2 = xTmp;
		}
		ks0108DrawHoriLine(x1, y1, x2-x1, color);
    1e8a:	fd 18       	sub	r15, r13
    1e8c:	8d 2d       	mov	r24, r13
    1e8e:	6c 2d       	mov	r22, r12
    1e90:	4f 2d       	mov	r20, r15
    1e92:	20 e0       	ldi	r18, 0x00	; 0
    1e94:	05 2d       	mov	r16, r5
    1e96:	0e 94 5d 0d 	call	0x1aba	; 0x1aba <ks0108FillRect>
    1e9a:	d6 c0       	rjmp	.+428    	; 0x2048 <ks0108DrawLine+0x20c>
	//
	// schiefe line :)
	//
	} else {
		// angle >= 45
		if((y2-y1) >= (x2-x1) || (y1-y2) >= (x2-x1)) {
    1e9c:	62 2f       	mov	r22, r18
    1e9e:	70 e0       	ldi	r23, 0x00	; 0
    1ea0:	4c 2d       	mov	r20, r12
    1ea2:	50 e0       	ldi	r21, 0x00	; 0
    1ea4:	2f 2d       	mov	r18, r15
    1ea6:	30 e0       	ldi	r19, 0x00	; 0
    1ea8:	28 1b       	sub	r18, r24
    1eaa:	31 09       	sbc	r19, r1
    1eac:	cb 01       	movw	r24, r22
    1eae:	84 1b       	sub	r24, r20
    1eb0:	95 0b       	sbc	r25, r21
    1eb2:	82 17       	cp	r24, r18
    1eb4:	93 07       	cpc	r25, r19
    1eb6:	34 f4       	brge	.+12     	; 0x1ec4 <ks0108DrawLine+0x88>
    1eb8:	46 1b       	sub	r20, r22
    1eba:	57 0b       	sbc	r21, r23
    1ebc:	42 17       	cp	r20, r18
    1ebe:	53 07       	cpc	r21, r19
    1ec0:	0c f4       	brge	.+2      	; 0x1ec4 <ks0108DrawLine+0x88>
    1ec2:	62 c0       	rjmp	.+196    	; 0x1f88 <ks0108DrawLine+0x14c>
			// x1 must be smaller than x2
			if(x1 > x2) {
    1ec4:	fd 14       	cp	r15, r13
    1ec6:	30 f4       	brcc	.+12     	; 0x1ed4 <ks0108DrawLine+0x98>
    1ec8:	8f 2d       	mov	r24, r15
    1eca:	fd 2c       	mov	r15, r13
    1ecc:	d8 2e       	mov	r13, r24
    1ece:	8e 2d       	mov	r24, r14
    1ed0:	ec 2c       	mov	r14, r12
    1ed2:	c8 2e       	mov	r12, r24
				y1 = y2;
				x2 = xTmp;
				y2 = yTmp;
			}
		
			length = x2-x1;		// not really the length :)
    1ed4:	4f 2c       	mov	r4, r15
    1ed6:	4d 18       	sub	r4, r13
			m = ((y2-y1)*200)/length;
    1ed8:	ee 2d       	mov	r30, r14
    1eda:	f0 e0       	ldi	r31, 0x00	; 0
    1edc:	2c 2d       	mov	r18, r12
    1ede:	30 e0       	ldi	r19, 0x00	; 0
    1ee0:	4f 01       	movw	r8, r30
    1ee2:	82 1a       	sub	r8, r18
    1ee4:	93 0a       	sbc	r9, r19
    1ee6:	a4 2c       	mov	r10, r4
    1ee8:	bb 24       	eor	r11, r11
    1eea:	88 ec       	ldi	r24, 0xC8	; 200
    1eec:	90 e0       	ldi	r25, 0x00	; 0
    1eee:	ac 01       	movw	r20, r24
    1ef0:	84 9e       	mul	r8, r20
    1ef2:	c0 01       	movw	r24, r0
    1ef4:	85 9e       	mul	r8, r21
    1ef6:	90 0d       	add	r25, r0
    1ef8:	94 9e       	mul	r9, r20
    1efa:	90 0d       	add	r25, r0
    1efc:	11 24       	eor	r1, r1
    1efe:	b5 01       	movw	r22, r10
    1f00:	0e 94 a7 2b 	call	0x574e	; 0x574e <__divmodhi4>
    1f04:	eb 01       	movw	r28, r22
    1f06:	0c 2d       	mov	r16, r12
    1f08:	ff 24       	eor	r15, r15
				
				ks0108DrawLine(x1+i, yAlt, x1+i, y, color);
				
				if(length <= (y2-y1) && y1 < y2)
					yAlt = y+1;
				else if(length <= (y1-y2) && y1 > y2)
    1f0a:	39 01       	movw	r6, r18
    1f0c:	6e 1a       	sub	r6, r30
    1f0e:	7f 0a       	sbc	r7, r31
			length = x2-x1;		// not really the length :)
			m = ((y2-y1)*200)/length;
			yAlt = y1;
			
			for(i=0; i<=length; i++) {
				y = ((m*i)/200)+y1;
    1f10:	8f 2d       	mov	r24, r15
    1f12:	90 e0       	ldi	r25, 0x00	; 0
    1f14:	8c 9f       	mul	r24, r28
    1f16:	90 01       	movw	r18, r0
    1f18:	8d 9f       	mul	r24, r29
    1f1a:	30 0d       	add	r19, r0
    1f1c:	9c 9f       	mul	r25, r28
    1f1e:	30 0d       	add	r19, r0
    1f20:	11 24       	eor	r1, r1
    1f22:	c9 01       	movw	r24, r18
    1f24:	68 ec       	ldi	r22, 0xC8	; 200
    1f26:	70 e0       	ldi	r23, 0x00	; 0
    1f28:	0e 94 a7 2b 	call	0x574e	; 0x574e <__divmodhi4>
    1f2c:	16 2f       	mov	r17, r22
    1f2e:	1c 0d       	add	r17, r12
				
				if((m*i)%200 >= 100)
    1f30:	c9 01       	movw	r24, r18
    1f32:	68 ec       	ldi	r22, 0xC8	; 200
    1f34:	70 e0       	ldi	r23, 0x00	; 0
    1f36:	0e 94 a7 2b 	call	0x574e	; 0x574e <__divmodhi4>
    1f3a:	84 36       	cpi	r24, 0x64	; 100
    1f3c:	91 05       	cpc	r25, r1
    1f3e:	14 f0       	brlt	.+4      	; 0x1f44 <ks0108DrawLine+0x108>
					y++;
    1f40:	1f 5f       	subi	r17, 0xFF	; 255
    1f42:	05 c0       	rjmp	.+10     	; 0x1f4e <ks0108DrawLine+0x112>
				else if((m*i)%200 <= -100)
    1f44:	5f ef       	ldi	r21, 0xFF	; 255
    1f46:	8d 39       	cpi	r24, 0x9D	; 157
    1f48:	95 07       	cpc	r25, r21
    1f4a:	0c f4       	brge	.+2      	; 0x1f4e <ks0108DrawLine+0x112>
					y--;
    1f4c:	11 50       	subi	r17, 0x01	; 1
    1f4e:	4f 2d       	mov	r20, r15
    1f50:	4d 0d       	add	r20, r13
				
				ks0108DrawLine(x1+i, yAlt, x1+i, y, color);
    1f52:	84 2f       	mov	r24, r20
    1f54:	60 2f       	mov	r22, r16
    1f56:	21 2f       	mov	r18, r17
    1f58:	05 2d       	mov	r16, r5
    1f5a:	0e 94 1e 0f 	call	0x1e3c	; 0x1e3c <ks0108DrawLine>
				
				if(length <= (y2-y1) && y1 < y2)
    1f5e:	8a 14       	cp	r8, r10
    1f60:	9b 04       	cpc	r9, r11
    1f62:	2c f0       	brlt	.+10     	; 0x1f6e <ks0108DrawLine+0x132>
    1f64:	ce 14       	cp	r12, r14
    1f66:	18 f4       	brcc	.+6      	; 0x1f6e <ks0108DrawLine+0x132>
					yAlt = y+1;
    1f68:	01 2f       	mov	r16, r17
    1f6a:	0f 5f       	subi	r16, 0xFF	; 255
    1f6c:	09 c0       	rjmp	.+18     	; 0x1f80 <ks0108DrawLine+0x144>
				else if(length <= (y1-y2) && y1 > y2)
    1f6e:	6a 14       	cp	r6, r10
    1f70:	7b 04       	cpc	r7, r11
    1f72:	2c f0       	brlt	.+10     	; 0x1f7e <ks0108DrawLine+0x142>
    1f74:	ec 14       	cp	r14, r12
    1f76:	18 f4       	brcc	.+6      	; 0x1f7e <ks0108DrawLine+0x142>
					yAlt = y-1;
    1f78:	01 2f       	mov	r16, r17
    1f7a:	01 50       	subi	r16, 0x01	; 1
    1f7c:	01 c0       	rjmp	.+2      	; 0x1f80 <ks0108DrawLine+0x144>
				
				ks0108DrawLine(x1+i, yAlt, x1+i, y, color);
				
				if(length <= (y2-y1) && y1 < y2)
					yAlt = y+1;
				else if(length <= (y1-y2) && y1 > y2)
    1f7e:	01 2f       	mov	r16, r17
		
			length = x2-x1;		// not really the length :)
			m = ((y2-y1)*200)/length;
			yAlt = y1;
			
			for(i=0; i<=length; i++) {
    1f80:	f3 94       	inc	r15
    1f82:	4f 14       	cp	r4, r15
    1f84:	28 f6       	brcc	.-118    	; 0x1f10 <ks0108DrawLine+0xd4>
    1f86:	60 c0       	rjmp	.+192    	; 0x2048 <ks0108DrawLine+0x20c>
			}
		
		// angle < 45
		} else {
			// y1 must be smaller than y2
			if(y1 > y2) {
    1f88:	ec 14       	cp	r14, r12
    1f8a:	28 f4       	brcc	.+10     	; 0x1f96 <ks0108DrawLine+0x15a>
    1f8c:	8f 2d       	mov	r24, r15
    1f8e:	fd 2c       	mov	r15, r13
    1f90:	d8 2e       	mov	r13, r24
    1f92:	ec 2c       	mov	r14, r12
    1f94:	c6 2e       	mov	r12, r22
				y1 = y2;
				x2 = xTmp;
				y2 = yTmp;
			}
			
			length = y2-y1;
    1f96:	4e 2c       	mov	r4, r14
    1f98:	4c 18       	sub	r4, r12
			m = ((x2-x1)*200)/length;
    1f9a:	ef 2d       	mov	r30, r15
    1f9c:	f0 e0       	ldi	r31, 0x00	; 0
    1f9e:	2d 2d       	mov	r18, r13
    1fa0:	30 e0       	ldi	r19, 0x00	; 0
    1fa2:	4f 01       	movw	r8, r30
    1fa4:	82 1a       	sub	r8, r18
    1fa6:	93 0a       	sbc	r9, r19
    1fa8:	a4 2c       	mov	r10, r4
    1faa:	bb 24       	eor	r11, r11
    1fac:	88 ec       	ldi	r24, 0xC8	; 200
    1fae:	90 e0       	ldi	r25, 0x00	; 0
    1fb0:	ac 01       	movw	r20, r24
    1fb2:	84 9e       	mul	r8, r20
    1fb4:	c0 01       	movw	r24, r0
    1fb6:	85 9e       	mul	r8, r21
    1fb8:	90 0d       	add	r25, r0
    1fba:	94 9e       	mul	r9, r20
    1fbc:	90 0d       	add	r25, r0
    1fbe:	11 24       	eor	r1, r1
    1fc0:	b5 01       	movw	r22, r10
    1fc2:	0e 94 a7 2b 	call	0x574e	; 0x574e <__divmodhi4>
    1fc6:	eb 01       	movw	r28, r22
    1fc8:	4d 2d       	mov	r20, r13
    1fca:	ee 24       	eor	r14, r14
					y--;
				
				ks0108DrawLine(yAlt, y1+i, y, y1+i, color);
				if(length <= (x2-x1) && x1 < x2)
					yAlt = y+1;
				else if(length <= (x1-x2) && x1 > x2)
    1fcc:	39 01       	movw	r6, r18
    1fce:	6e 1a       	sub	r6, r30
    1fd0:	7f 0a       	sbc	r7, r31
			length = y2-y1;
			m = ((x2-x1)*200)/length;
			yAlt = x1;
			
			for(i=0; i<=length; i++) {
				y = ((m*i)/200)+x1;
    1fd2:	8e 2d       	mov	r24, r14
    1fd4:	90 e0       	ldi	r25, 0x00	; 0
    1fd6:	8c 9f       	mul	r24, r28
    1fd8:	90 01       	movw	r18, r0
    1fda:	8d 9f       	mul	r24, r29
    1fdc:	30 0d       	add	r19, r0
    1fde:	9c 9f       	mul	r25, r28
    1fe0:	30 0d       	add	r19, r0
    1fe2:	11 24       	eor	r1, r1
    1fe4:	c9 01       	movw	r24, r18
    1fe6:	68 ec       	ldi	r22, 0xC8	; 200
    1fe8:	70 e0       	ldi	r23, 0x00	; 0
    1fea:	0e 94 a7 2b 	call	0x574e	; 0x574e <__divmodhi4>
    1fee:	16 2f       	mov	r17, r22
    1ff0:	1d 0d       	add	r17, r13
				
				if((m*i)%200 >= 100)
    1ff2:	c9 01       	movw	r24, r18
    1ff4:	68 ec       	ldi	r22, 0xC8	; 200
    1ff6:	70 e0       	ldi	r23, 0x00	; 0
    1ff8:	0e 94 a7 2b 	call	0x574e	; 0x574e <__divmodhi4>
    1ffc:	84 36       	cpi	r24, 0x64	; 100
    1ffe:	91 05       	cpc	r25, r1
    2000:	14 f0       	brlt	.+4      	; 0x2006 <ks0108DrawLine+0x1ca>
					y++;
    2002:	1f 5f       	subi	r17, 0xFF	; 255
    2004:	05 c0       	rjmp	.+10     	; 0x2010 <ks0108DrawLine+0x1d4>
				else if((m*i)%200 <= -100)
    2006:	5f ef       	ldi	r21, 0xFF	; 255
    2008:	8d 39       	cpi	r24, 0x9D	; 157
    200a:	95 07       	cpc	r25, r21
    200c:	0c f4       	brge	.+2      	; 0x2010 <ks0108DrawLine+0x1d4>
					y--;
    200e:	11 50       	subi	r17, 0x01	; 1
    2010:	2e 2d       	mov	r18, r14
    2012:	2c 0d       	add	r18, r12
				
				ks0108DrawLine(yAlt, y1+i, y, y1+i, color);
    2014:	84 2f       	mov	r24, r20
    2016:	62 2f       	mov	r22, r18
    2018:	41 2f       	mov	r20, r17
    201a:	05 2d       	mov	r16, r5
    201c:	0e 94 1e 0f 	call	0x1e3c	; 0x1e3c <ks0108DrawLine>
				if(length <= (x2-x1) && x1 < x2)
    2020:	8a 14       	cp	r8, r10
    2022:	9b 04       	cpc	r9, r11
    2024:	2c f0       	brlt	.+10     	; 0x2030 <ks0108DrawLine+0x1f4>
    2026:	df 14       	cp	r13, r15
    2028:	18 f4       	brcc	.+6      	; 0x2030 <ks0108DrawLine+0x1f4>
					yAlt = y+1;
    202a:	41 2f       	mov	r20, r17
    202c:	4f 5f       	subi	r20, 0xFF	; 255
    202e:	09 c0       	rjmp	.+18     	; 0x2042 <ks0108DrawLine+0x206>
				else if(length <= (x1-x2) && x1 > x2)
    2030:	6a 14       	cp	r6, r10
    2032:	7b 04       	cpc	r7, r11
    2034:	2c f0       	brlt	.+10     	; 0x2040 <ks0108DrawLine+0x204>
    2036:	fd 14       	cp	r15, r13
    2038:	18 f4       	brcc	.+6      	; 0x2040 <ks0108DrawLine+0x204>
					yAlt = y-1;
    203a:	41 2f       	mov	r20, r17
    203c:	41 50       	subi	r20, 0x01	; 1
    203e:	01 c0       	rjmp	.+2      	; 0x2042 <ks0108DrawLine+0x206>
					y--;
				
				ks0108DrawLine(yAlt, y1+i, y, y1+i, color);
				if(length <= (x2-x1) && x1 < x2)
					yAlt = y+1;
				else if(length <= (x1-x2) && x1 > x2)
    2040:	41 2f       	mov	r20, r17
			
			length = y2-y1;
			m = ((x2-x1)*200)/length;
			yAlt = x1;
			
			for(i=0; i<=length; i++) {
    2042:	e3 94       	inc	r14
    2044:	4e 14       	cp	r4, r14
    2046:	28 f6       	brcc	.-118    	; 0x1fd2 <ks0108DrawLine+0x196>
				else
					yAlt = y;
			}
		}
	}
}
    2048:	df 91       	pop	r29
    204a:	cf 91       	pop	r28
    204c:	1f 91       	pop	r17
    204e:	0f 91       	pop	r16
    2050:	ff 90       	pop	r15
    2052:	ef 90       	pop	r14
    2054:	df 90       	pop	r13
    2056:	cf 90       	pop	r12
    2058:	bf 90       	pop	r11
    205a:	af 90       	pop	r10
    205c:	9f 90       	pop	r9
    205e:	8f 90       	pop	r8
    2060:	7f 90       	pop	r7
    2062:	6f 90       	pop	r6
    2064:	5f 90       	pop	r5
    2066:	4f 90       	pop	r4
    2068:	08 95       	ret

0000206a <LoadBitmap>:
#include <avr/pgmspace.h>
#include "Bitmap.h"
#include "ks0108.h"
//##########################################################
void LoadBitmap(unsigned char *bitmap)
{
    206a:	ef 92       	push	r14
    206c:	ff 92       	push	r15
    206e:	0f 93       	push	r16
    2070:	1f 93       	push	r17
    2072:	cf 93       	push	r28
    2074:	df 93       	push	r29
    2076:	8c 01       	movw	r16, r24
    2078:	ff 24       	eor	r15, r15
    207a:	16 c0       	rjmp	.+44     	; 0x20a8 <LoadBitmap+0x3e>
uint16_t i, j,by;
for(i=0; i<64; i+=8)

		for(j=0; j<128; j++)
		{
			by=pgm_read_byte(bitmap++);
    207c:	f8 01       	movw	r30, r16
    207e:	ec 0f       	add	r30, r28
    2080:	fd 1f       	adc	r31, r29
    2082:	e4 90       	lpm	r14, Z+
			ks0108GotoXY(j, i);
    2084:	8c 2f       	mov	r24, r28
    2086:	6f 2d       	mov	r22, r15
    2088:	0e 94 44 0a 	call	0x1488	; 0x1488 <ks0108GotoXY>
			ks0108WriteData(by);
    208c:	8e 2d       	mov	r24, r14
    208e:	0e 94 a4 0a 	call	0x1548	; 0x1548 <ks0108WriteData>
void LoadBitmap(unsigned char *bitmap)
{
uint16_t i, j,by;
for(i=0; i<64; i+=8)

		for(j=0; j<128; j++)
    2092:	21 96       	adiw	r28, 0x01	; 1
    2094:	c0 38       	cpi	r28, 0x80	; 128
    2096:	d1 05       	cpc	r29, r1
    2098:	89 f7       	brne	.-30     	; 0x207c <LoadBitmap+0x12>
    209a:	00 58       	subi	r16, 0x80	; 128
    209c:	1f 4f       	sbci	r17, 0xFF	; 255
    209e:	88 e0       	ldi	r24, 0x08	; 8
    20a0:	f8 0e       	add	r15, r24
#include "ks0108.h"
//##########################################################
void LoadBitmap(unsigned char *bitmap)
{
uint16_t i, j,by;
for(i=0; i<64; i+=8)
    20a2:	80 e4       	ldi	r24, 0x40	; 64
    20a4:	f8 16       	cp	r15, r24
    20a6:	19 f0       	breq	.+6      	; 0x20ae <LoadBitmap+0x44>
    20a8:	c0 e0       	ldi	r28, 0x00	; 0
    20aa:	d0 e0       	ldi	r29, 0x00	; 0
    20ac:	e7 cf       	rjmp	.-50     	; 0x207c <LoadBitmap+0x12>
			by=pgm_read_byte(bitmap++);
			ks0108GotoXY(j, i);
			ks0108WriteData(by);
		}

}
    20ae:	df 91       	pop	r29
    20b0:	cf 91       	pop	r28
    20b2:	1f 91       	pop	r17
    20b4:	0f 91       	pop	r16
    20b6:	ff 90       	pop	r15
    20b8:	ef 90       	pop	r14
    20ba:	08 95       	ret

000020bc <LoadBitmap1>:
#include <avr/pgmspace.h>
#include "Bitmap1.h"
#include "ks0108.h"
//##########################################################
void LoadBitmap1(unsigned char *bitmap1)
{
    20bc:	ef 92       	push	r14
    20be:	ff 92       	push	r15
    20c0:	0f 93       	push	r16
    20c2:	1f 93       	push	r17
    20c4:	cf 93       	push	r28
    20c6:	df 93       	push	r29
    20c8:	8c 01       	movw	r16, r24
    20ca:	ff 24       	eor	r15, r15
    20cc:	16 c0       	rjmp	.+44     	; 0x20fa <LoadBitmap1+0x3e>
uint16_t i, j,by;
for(i=0; i<64; i+=8)

		for(j=0; j<128; j++)
		{
			by=pgm_read_byte(bitmap1++);
    20ce:	f8 01       	movw	r30, r16
    20d0:	ec 0f       	add	r30, r28
    20d2:	fd 1f       	adc	r31, r29
    20d4:	e4 90       	lpm	r14, Z+
			ks0108GotoXY(j, i);
    20d6:	8c 2f       	mov	r24, r28
    20d8:	6f 2d       	mov	r22, r15
    20da:	0e 94 44 0a 	call	0x1488	; 0x1488 <ks0108GotoXY>
			ks0108WriteData(by);
    20de:	8e 2d       	mov	r24, r14
    20e0:	0e 94 a4 0a 	call	0x1548	; 0x1548 <ks0108WriteData>
void LoadBitmap1(unsigned char *bitmap1)
{
uint16_t i, j,by;
for(i=0; i<64; i+=8)

		for(j=0; j<128; j++)
    20e4:	21 96       	adiw	r28, 0x01	; 1
    20e6:	c0 38       	cpi	r28, 0x80	; 128
    20e8:	d1 05       	cpc	r29, r1
    20ea:	89 f7       	brne	.-30     	; 0x20ce <LoadBitmap1+0x12>
    20ec:	00 58       	subi	r16, 0x80	; 128
    20ee:	1f 4f       	sbci	r17, 0xFF	; 255
    20f0:	88 e0       	ldi	r24, 0x08	; 8
    20f2:	f8 0e       	add	r15, r24
#include "ks0108.h"
//##########################################################
void LoadBitmap1(unsigned char *bitmap1)
{
uint16_t i, j,by;
for(i=0; i<64; i+=8)
    20f4:	80 e4       	ldi	r24, 0x40	; 64
    20f6:	f8 16       	cp	r15, r24
    20f8:	19 f0       	breq	.+6      	; 0x2100 <LoadBitmap1+0x44>
    20fa:	c0 e0       	ldi	r28, 0x00	; 0
    20fc:	d0 e0       	ldi	r29, 0x00	; 0
    20fe:	e7 cf       	rjmp	.-50     	; 0x20ce <LoadBitmap1+0x12>
			by=pgm_read_byte(bitmap1++);
			ks0108GotoXY(j, i);
			ks0108WriteData(by);
		}

}
    2100:	df 91       	pop	r29
    2102:	cf 91       	pop	r28
    2104:	1f 91       	pop	r17
    2106:	0f 91       	pop	r16
    2108:	ff 90       	pop	r15
    210a:	ef 90       	pop	r14
    210c:	08 95       	ret

0000210e <LoadBitmap2>:
#include <avr/pgmspace.h>
#include "Bitmap2.h"
#include "ks0108.h"
//##########################################################
void LoadBitmap2(unsigned char *bitmap2)
{
    210e:	ef 92       	push	r14
    2110:	ff 92       	push	r15
    2112:	0f 93       	push	r16
    2114:	1f 93       	push	r17
    2116:	cf 93       	push	r28
    2118:	df 93       	push	r29
    211a:	8c 01       	movw	r16, r24
    211c:	ff 24       	eor	r15, r15
    211e:	16 c0       	rjmp	.+44     	; 0x214c <LoadBitmap2+0x3e>
uint16_t i, j,by;
for(i=0; i<64; i+=8)

		for(j=0; j<128; j++)
		{
			by=pgm_read_byte(bitmap2++);
    2120:	f8 01       	movw	r30, r16
    2122:	ec 0f       	add	r30, r28
    2124:	fd 1f       	adc	r31, r29
    2126:	e4 90       	lpm	r14, Z+
			ks0108GotoXY(j, i);
    2128:	8c 2f       	mov	r24, r28
    212a:	6f 2d       	mov	r22, r15
    212c:	0e 94 44 0a 	call	0x1488	; 0x1488 <ks0108GotoXY>
			ks0108WriteData(by);
    2130:	8e 2d       	mov	r24, r14
    2132:	0e 94 a4 0a 	call	0x1548	; 0x1548 <ks0108WriteData>
void LoadBitmap2(unsigned char *bitmap2)
{
uint16_t i, j,by;
for(i=0; i<64; i+=8)

		for(j=0; j<128; j++)
    2136:	21 96       	adiw	r28, 0x01	; 1
    2138:	c0 38       	cpi	r28, 0x80	; 128
    213a:	d1 05       	cpc	r29, r1
    213c:	89 f7       	brne	.-30     	; 0x2120 <LoadBitmap2+0x12>
    213e:	00 58       	subi	r16, 0x80	; 128
    2140:	1f 4f       	sbci	r17, 0xFF	; 255
    2142:	88 e0       	ldi	r24, 0x08	; 8
    2144:	f8 0e       	add	r15, r24
#include "ks0108.h"
//##########################################################
void LoadBitmap2(unsigned char *bitmap2)
{
uint16_t i, j,by;
for(i=0; i<64; i+=8)
    2146:	80 e4       	ldi	r24, 0x40	; 64
    2148:	f8 16       	cp	r15, r24
    214a:	19 f0       	breq	.+6      	; 0x2152 <LoadBitmap2+0x44>
    214c:	c0 e0       	ldi	r28, 0x00	; 0
    214e:	d0 e0       	ldi	r29, 0x00	; 0
    2150:	e7 cf       	rjmp	.-50     	; 0x2120 <LoadBitmap2+0x12>
			by=pgm_read_byte(bitmap2++);
			ks0108GotoXY(j, i);
			ks0108WriteData(by);
		}

}
    2152:	df 91       	pop	r29
    2154:	cf 91       	pop	r28
    2156:	1f 91       	pop	r17
    2158:	0f 91       	pop	r16
    215a:	ff 90       	pop	r15
    215c:	ef 90       	pop	r14
    215e:	08 95       	ret

00002160 <initADC>:
int high_score1=0,high_score2=0,score1=0,score2=0,score3=0,high_score3=0;

int i,check,Fscore=0,Fscore2,score=0,time1=0,time2=0,time3=0,k;
void initADC()
{
ADMUX=(1<<REFS0);  // For Aref=AVcc;
    2160:	80 e4       	ldi	r24, 0x40	; 64
    2162:	87 b9       	out	0x07, r24	; 7
ADCSRA=(1<<ADEN)|(1<<ADIE)|(1<<ADPS2); //Prescalar div factor =8
    2164:	8c e8       	ldi	r24, 0x8C	; 140
    2166:	86 b9       	out	0x06, r24	; 6
}
    2168:	08 95       	ret

0000216a <read_adc>:

unsigned int read_adc(unsigned char adc_input)
{
ADMUX=adc_input | (ADC_VREF_TYPE & 0xff);
    216a:	80 64       	ori	r24, 0x40	; 64
    216c:	87 b9       	out	0x07, r24	; 7
    can be achieved.
*/
void
_delay_loop_1(uint8_t __count)
{
	__asm__ volatile (
    216e:	83 e0       	ldi	r24, 0x03	; 3
    2170:	8a 95       	dec	r24
    2172:	f1 f7       	brne	.-4      	; 0x2170 <read_adc+0x6>
// Delay needed for the stabilization of the ADC input voltage
_delay_us(10);
// Start the AD conversion
ADCSRA|=0x40;
    2174:	36 9a       	sbi	0x06, 6	; 6
// Wait for the AD conversion to complete
while ((ADCSRA & 0x10)==0);
    2176:	34 9b       	sbis	0x06, 4	; 6
    2178:	fe cf       	rjmp	.-4      	; 0x2176 <read_adc+0xc>
ADCSRA|=0x10;
    217a:	34 9a       	sbi	0x06, 4	; 6
return ADCW;
    217c:	24 b1       	in	r18, 0x04	; 4
    217e:	35 b1       	in	r19, 0x05	; 5
}
    2180:	c9 01       	movw	r24, r18
    2182:	08 95       	ret

00002184 <create_ball_initially>:
}// end of while(1)

}// end of main

void create_ball_initially(uint8_t xp,uint8_t yp)
{
    2184:	ef 92       	push	r14
    2186:	ff 92       	push	r15
    2188:	0f 93       	push	r16
    218a:	1f 93       	push	r17
    218c:	08 2f       	mov	r16, r24
    218e:	16 2f       	mov	r17, r22
xpos=xp;
    2190:	80 93 8b 00 	sts	0x008B, r24
ypos=yp;
    2194:	60 93 cf 00 	sts	0x00CF, r22
ks0108SetDot(xp,yp+1,BLACK);
    2198:	e6 2e       	mov	r14, r22
    219a:	e3 94       	inc	r14
    219c:	6e 2d       	mov	r22, r14
    219e:	4f ef       	ldi	r20, 0xFF	; 255
    21a0:	0e 94 87 0c 	call	0x190e	; 0x190e <ks0108SetDot>

ks0108SetDot(xp+1,yp,BLACK);
    21a4:	f0 2e       	mov	r15, r16
    21a6:	f3 94       	inc	r15
    21a8:	8f 2d       	mov	r24, r15
    21aa:	61 2f       	mov	r22, r17
    21ac:	4f ef       	ldi	r20, 0xFF	; 255
    21ae:	0e 94 87 0c 	call	0x190e	; 0x190e <ks0108SetDot>

ks0108SetDot(xp+1,yp+2,BLACK);
    21b2:	1e 5f       	subi	r17, 0xFE	; 254
    21b4:	8f 2d       	mov	r24, r15
    21b6:	61 2f       	mov	r22, r17
    21b8:	4f ef       	ldi	r20, 0xFF	; 255
    21ba:	0e 94 87 0c 	call	0x190e	; 0x190e <ks0108SetDot>
ks0108SetDot(xp+2,yp+1,BLACK);
    21be:	80 2f       	mov	r24, r16
    21c0:	8e 5f       	subi	r24, 0xFE	; 254
    21c2:	6e 2d       	mov	r22, r14
    21c4:	4f ef       	ldi	r20, 0xFF	; 255
    21c6:	0e 94 87 0c 	call	0x190e	; 0x190e <ks0108SetDot>

}
    21ca:	1f 91       	pop	r17
    21cc:	0f 91       	pop	r16
    21ce:	ff 90       	pop	r15
    21d0:	ef 90       	pop	r14
    21d2:	08 95       	ret

000021d4 <clear_ball>:
ks0108SetDot(xp+1,yp+2,BLACK);
ks0108SetDot(xp+2,yp+1,BLACK);

}
void clear_ball()
{ks0108SetDot(xpos,ypos+1,WHITE);
    21d4:	60 91 cf 00 	lds	r22, 0x00CF
    21d8:	6f 5f       	subi	r22, 0xFF	; 255
    21da:	80 91 8b 00 	lds	r24, 0x008B
    21de:	40 e0       	ldi	r20, 0x00	; 0
    21e0:	0e 94 87 0c 	call	0x190e	; 0x190e <ks0108SetDot>

ks0108SetDot(xpos+1,ypos,WHITE);
    21e4:	80 91 8b 00 	lds	r24, 0x008B
    21e8:	8f 5f       	subi	r24, 0xFF	; 255
    21ea:	60 91 cf 00 	lds	r22, 0x00CF
    21ee:	40 e0       	ldi	r20, 0x00	; 0
    21f0:	0e 94 87 0c 	call	0x190e	; 0x190e <ks0108SetDot>

ks0108SetDot(xpos+1,ypos+2,WHITE);
    21f4:	80 91 8b 00 	lds	r24, 0x008B
    21f8:	60 91 cf 00 	lds	r22, 0x00CF
    21fc:	6e 5f       	subi	r22, 0xFE	; 254
    21fe:	8f 5f       	subi	r24, 0xFF	; 255
    2200:	40 e0       	ldi	r20, 0x00	; 0
    2202:	0e 94 87 0c 	call	0x190e	; 0x190e <ks0108SetDot>

ks0108SetDot(xpos+2,ypos+1,WHITE);
    2206:	80 91 8b 00 	lds	r24, 0x008B
    220a:	60 91 cf 00 	lds	r22, 0x00CF
    220e:	6f 5f       	subi	r22, 0xFF	; 255
    2210:	8e 5f       	subi	r24, 0xFE	; 254
    2212:	40 e0       	ldi	r20, 0x00	; 0
    2214:	0e 94 87 0c 	call	0x190e	; 0x190e <ks0108SetDot>


}
    2218:	08 95       	ret

0000221a <create_ball>:
ks0108SetDot(xp+2,yp+1,BLACK);

}

void create_ball(uint8_t xp,uint8_t yp)
{clear_ball();
    221a:	ef 92       	push	r14
    221c:	ff 92       	push	r15
    221e:	0f 93       	push	r16
    2220:	1f 93       	push	r17
    2222:	08 2f       	mov	r16, r24
    2224:	16 2f       	mov	r17, r22
    2226:	0e 94 ea 10 	call	0x21d4	; 0x21d4 <clear_ball>
xpos=xp;
    222a:	00 93 8b 00 	sts	0x008B, r16
ypos=yp;
    222e:	10 93 cf 00 	sts	0x00CF, r17
ks0108SetDot(xp,yp+1,BLACK);
    2232:	e1 2e       	mov	r14, r17
    2234:	e3 94       	inc	r14
    2236:	80 2f       	mov	r24, r16
    2238:	6e 2d       	mov	r22, r14
    223a:	4f ef       	ldi	r20, 0xFF	; 255
    223c:	0e 94 87 0c 	call	0x190e	; 0x190e <ks0108SetDot>

ks0108SetDot(xp+1,yp,BLACK);
    2240:	f0 2e       	mov	r15, r16
    2242:	f3 94       	inc	r15
    2244:	8f 2d       	mov	r24, r15
    2246:	61 2f       	mov	r22, r17
    2248:	4f ef       	ldi	r20, 0xFF	; 255
    224a:	0e 94 87 0c 	call	0x190e	; 0x190e <ks0108SetDot>

ks0108SetDot(xp+1,yp+2,BLACK);
    224e:	1e 5f       	subi	r17, 0xFE	; 254
    2250:	8f 2d       	mov	r24, r15
    2252:	61 2f       	mov	r22, r17
    2254:	4f ef       	ldi	r20, 0xFF	; 255
    2256:	0e 94 87 0c 	call	0x190e	; 0x190e <ks0108SetDot>
ks0108SetDot(xp+2,yp+1,BLACK);
    225a:	80 2f       	mov	r24, r16
    225c:	8e 5f       	subi	r24, 0xFE	; 254
    225e:	6e 2d       	mov	r22, r14
    2260:	4f ef       	ldi	r20, 0xFF	; 255
    2262:	0e 94 87 0c 	call	0x190e	; 0x190e <ks0108SetDot>

}
    2266:	1f 91       	pop	r17
    2268:	0f 91       	pop	r16
    226a:	ff 90       	pop	r15
    226c:	ef 90       	pop	r14
    226e:	08 95       	ret

00002270 <move_ball>:


}

void move_ball(char dir)
{if(dir=='r')// move the ball towards right
    2270:	82 37       	cpi	r24, 0x72	; 114
    2272:	31 f4       	brne	.+12     	; 0x2280 <move_ball+0x10>
{
clear_ball();
    2274:	0e 94 ea 10 	call	0x21d4	; 0x21d4 <clear_ball>
xpos=xpos+1;
    2278:	80 91 8b 00 	lds	r24, 0x008B
    227c:	8f 5f       	subi	r24, 0xFF	; 255
    227e:	07 c0       	rjmp	.+14     	; 0x228e <move_ball+0x1e>
create_ball(xpos,ypos);

ypos=ypos;

}
else if(dir =='l')
    2280:	8c 36       	cpi	r24, 0x6C	; 108
    2282:	51 f4       	brne	.+20     	; 0x2298 <move_ball+0x28>
{clear_ball();
    2284:	0e 94 ea 10 	call	0x21d4	; 0x21d4 <clear_ball>
xpos=xpos-1;
    2288:	80 91 8b 00 	lds	r24, 0x008B
    228c:	81 50       	subi	r24, 0x01	; 1
    228e:	80 93 8b 00 	sts	0x008B, r24
create_ball(xpos,ypos);
    2292:	60 91 cf 00 	lds	r22, 0x00CF
    2296:	0b c0       	rjmp	.+22     	; 0x22ae <move_ball+0x3e>
}

else if(dir=='u')
    2298:	85 37       	cpi	r24, 0x75	; 117
    229a:	61 f4       	brne	.+24     	; 0x22b4 <move_ball+0x44>
{clear_ball();
    229c:	0e 94 ea 10 	call	0x21d4	; 0x21d4 <clear_ball>
ypos=ypos-1;
    22a0:	60 91 cf 00 	lds	r22, 0x00CF
    22a4:	61 50       	subi	r22, 0x01	; 1
    22a6:	60 93 cf 00 	sts	0x00CF, r22
create_ball(xpos,ypos);
    22aa:	80 91 8b 00 	lds	r24, 0x008B
    22ae:	0e 94 0d 11 	call	0x221a	; 0x221a <create_ball>
    22b2:	08 95       	ret
}
else if( dir=='d')
    22b4:	84 36       	cpi	r24, 0x64	; 100
    22b6:	59 f4       	brne	.+22     	; 0x22ce <move_ball+0x5e>
{
clear_ball();
    22b8:	0e 94 ea 10 	call	0x21d4	; 0x21d4 <clear_ball>
ypos=ypos+1;
    22bc:	60 91 cf 00 	lds	r22, 0x00CF
    22c0:	6f 5f       	subi	r22, 0xFF	; 255
    22c2:	60 93 cf 00 	sts	0x00CF, r22
create_ball(xpos,ypos);
    22c6:	80 91 8b 00 	lds	r24, 0x008B
    22ca:	0e 94 0d 11 	call	0x221a	; 0x221a <create_ball>
    22ce:	08 95       	ret

000022d0 <cb>:
}

}//
//function to check whether a particular pixel value is 0 or 1 
int cb(unsigned char *bmp,int xc, int yc)
{
    22d0:	0f 93       	push	r16
    22d2:	1f 93       	push	r17
    22d4:	df 93       	push	r29
    22d6:	cf 93       	push	r28
    22d8:	00 d0       	rcall	.+0      	; 0x22da <cb+0xa>
    22da:	cd b7       	in	r28, 0x3d	; 61
    22dc:	de b7       	in	r29, 0x3e	; 62
    22de:	fc 01       	movw	r30, r24
    22e0:	9b 01       	movw	r18, r22
    22e2:	8a 01       	movw	r16, r20
int var,by;
var=(yc/8)*128+xc;
by=pgm_read_byte(bmp+var);
    22e4:	ca 01       	movw	r24, r20
    22e6:	68 e0       	ldi	r22, 0x08	; 8
    22e8:	70 e0       	ldi	r23, 0x00	; 0
    22ea:	0e 94 a7 2b 	call	0x574e	; 0x574e <__divmodhi4>
    22ee:	76 95       	lsr	r23
    22f0:	76 2f       	mov	r23, r22
    22f2:	66 27       	eor	r22, r22
    22f4:	77 95       	ror	r23
    22f6:	67 95       	ror	r22
    22f8:	62 0f       	add	r22, r18
    22fa:	73 1f       	adc	r23, r19
    22fc:	e6 0f       	add	r30, r22
    22fe:	f7 1f       	adc	r31, r23
    2300:	e4 91       	lpm	r30, Z+
    2302:	e9 83       	std	Y+1, r30	; 0x01
    2304:	1a 82       	std	Y+2, r1	; 0x02
if(bit_is_set(by,(yc%8)))
    2306:	29 81       	ldd	r18, Y+1	; 0x01
    2308:	c8 01       	movw	r24, r16
    230a:	68 e0       	ldi	r22, 0x08	; 8
    230c:	70 e0       	ldi	r23, 0x00	; 0
    230e:	0e 94 a7 2b 	call	0x574e	; 0x574e <__divmodhi4>
    2312:	48 2f       	mov	r20, r24
    2314:	30 e0       	ldi	r19, 0x00	; 0
    2316:	08 2e       	mov	r0, r24
    2318:	02 c0       	rjmp	.+4      	; 0x231e <cb+0x4e>
    231a:	35 95       	asr	r19
    231c:	27 95       	ror	r18
    231e:	0a 94       	dec	r0
    2320:	e2 f7       	brpl	.-8      	; 0x231a <cb+0x4a>
    2322:	20 fd       	sbrc	r18, 0
    2324:	0d c0       	rjmp	.+26     	; 0x2340 <cb+0x70>

{return 1;}
else if (bit_is_clear(by,(yc%8)))
    2326:	89 81       	ldd	r24, Y+1	; 0x01
    2328:	90 e0       	ldi	r25, 0x00	; 0
    232a:	02 c0       	rjmp	.+4      	; 0x2330 <cb+0x60>
    232c:	95 95       	asr	r25
    232e:	87 95       	ror	r24
    2330:	4a 95       	dec	r20
    2332:	e2 f7       	brpl	.-8      	; 0x232c <cb+0x5c>
    2334:	80 fd       	sbrc	r24, 0
    2336:	03 c0       	rjmp	.+6      	; 0x233e <cb+0x6e>
    2338:	20 e0       	ldi	r18, 0x00	; 0
    233a:	30 e0       	ldi	r19, 0x00	; 0
    233c:	03 c0       	rjmp	.+6      	; 0x2344 <cb+0x74>
    233e:	03 c0       	rjmp	.+6      	; 0x2346 <cb+0x76>
{return 0;}
}
    2340:	21 e0       	ldi	r18, 0x01	; 1
    2342:	30 e0       	ldi	r19, 0x00	; 0
    2344:	c9 01       	movw	r24, r18
    2346:	0f 90       	pop	r0
    2348:	0f 90       	pop	r0
    234a:	cf 91       	pop	r28
    234c:	df 91       	pop	r29
    234e:	1f 91       	pop	r17
    2350:	0f 91       	pop	r16
    2352:	08 95       	ret

00002354 <surroundings>:



// function to check the surroundings of the ball
int surroundings ()
{int count=0;
    2354:	cf 93       	push	r28
    2356:	df 93       	push	r29
// upward direction 
if(cb(IMAGE,xpos,ypos-1)==0 && cb(IMAGE,xpos+1,ypos-1)==0 && cb(IMAGE,xpos+2,ypos-1)==0)
    2358:	60 91 8b 00 	lds	r22, 0x008B
    235c:	40 91 cf 00 	lds	r20, 0x00CF
    2360:	50 e0       	ldi	r21, 0x00	; 0
    2362:	41 50       	subi	r20, 0x01	; 1
    2364:	50 40       	sbci	r21, 0x00	; 0
    2366:	83 e8       	ldi	r24, 0x83	; 131
    2368:	98 e0       	ldi	r25, 0x08	; 8
    236a:	70 e0       	ldi	r23, 0x00	; 0
    236c:	0e 94 68 11 	call	0x22d0	; 0x22d0 <cb>
    2370:	89 2b       	or	r24, r25
    2372:	19 f5       	brne	.+70     	; 0x23ba <surroundings+0x66>
    2374:	60 91 8b 00 	lds	r22, 0x008B
    2378:	70 e0       	ldi	r23, 0x00	; 0
    237a:	6f 5f       	subi	r22, 0xFF	; 255
    237c:	7f 4f       	sbci	r23, 0xFF	; 255
    237e:	40 91 cf 00 	lds	r20, 0x00CF
    2382:	50 e0       	ldi	r21, 0x00	; 0
    2384:	41 50       	subi	r20, 0x01	; 1
    2386:	50 40       	sbci	r21, 0x00	; 0
    2388:	83 e8       	ldi	r24, 0x83	; 131
    238a:	98 e0       	ldi	r25, 0x08	; 8
    238c:	0e 94 68 11 	call	0x22d0	; 0x22d0 <cb>
    2390:	89 2b       	or	r24, r25
    2392:	99 f4       	brne	.+38     	; 0x23ba <surroundings+0x66>
    2394:	60 91 8b 00 	lds	r22, 0x008B
    2398:	70 e0       	ldi	r23, 0x00	; 0
    239a:	6e 5f       	subi	r22, 0xFE	; 254
    239c:	7f 4f       	sbci	r23, 0xFF	; 255
    239e:	40 91 cf 00 	lds	r20, 0x00CF
    23a2:	50 e0       	ldi	r21, 0x00	; 0
    23a4:	41 50       	subi	r20, 0x01	; 1
    23a6:	50 40       	sbci	r21, 0x00	; 0
    23a8:	83 e8       	ldi	r24, 0x83	; 131
    23aa:	98 e0       	ldi	r25, 0x08	; 8
    23ac:	0e 94 68 11 	call	0x22d0	; 0x22d0 <cb>
    23b0:	89 2b       	or	r24, r25
    23b2:	19 f4       	brne	.+6      	; 0x23ba <surroundings+0x66>
    23b4:	c1 e0       	ldi	r28, 0x01	; 1
    23b6:	d0 e0       	ldi	r29, 0x00	; 0
    23b8:	02 c0       	rjmp	.+4      	; 0x23be <surroundings+0x6a>
    23ba:	c0 e0       	ldi	r28, 0x00	; 0
    23bc:	d0 e0       	ldi	r29, 0x00	; 0
{
count =count+1;
}
// downwards
if(cb(IMAGE,xpos,ypos+3)==0 && cb(IMAGE,xpos+1,ypos+3)==0 && cb(IMAGE,xpos+2,ypos+3)==0)
    23be:	60 91 8b 00 	lds	r22, 0x008B
    23c2:	40 91 cf 00 	lds	r20, 0x00CF
    23c6:	50 e0       	ldi	r21, 0x00	; 0
    23c8:	4d 5f       	subi	r20, 0xFD	; 253
    23ca:	5f 4f       	sbci	r21, 0xFF	; 255
    23cc:	83 e8       	ldi	r24, 0x83	; 131
    23ce:	98 e0       	ldi	r25, 0x08	; 8
    23d0:	70 e0       	ldi	r23, 0x00	; 0
    23d2:	0e 94 68 11 	call	0x22d0	; 0x22d0 <cb>
    23d6:	89 2b       	or	r24, r25
    23d8:	09 f5       	brne	.+66     	; 0x241c <surroundings+0xc8>
    23da:	60 91 8b 00 	lds	r22, 0x008B
    23de:	70 e0       	ldi	r23, 0x00	; 0
    23e0:	6f 5f       	subi	r22, 0xFF	; 255
    23e2:	7f 4f       	sbci	r23, 0xFF	; 255
    23e4:	40 91 cf 00 	lds	r20, 0x00CF
    23e8:	50 e0       	ldi	r21, 0x00	; 0
    23ea:	4d 5f       	subi	r20, 0xFD	; 253
    23ec:	5f 4f       	sbci	r21, 0xFF	; 255
    23ee:	83 e8       	ldi	r24, 0x83	; 131
    23f0:	98 e0       	ldi	r25, 0x08	; 8
    23f2:	0e 94 68 11 	call	0x22d0	; 0x22d0 <cb>
    23f6:	89 2b       	or	r24, r25
    23f8:	89 f4       	brne	.+34     	; 0x241c <surroundings+0xc8>
    23fa:	60 91 8b 00 	lds	r22, 0x008B
    23fe:	70 e0       	ldi	r23, 0x00	; 0
    2400:	6e 5f       	subi	r22, 0xFE	; 254
    2402:	7f 4f       	sbci	r23, 0xFF	; 255
    2404:	40 91 cf 00 	lds	r20, 0x00CF
    2408:	50 e0       	ldi	r21, 0x00	; 0
    240a:	4d 5f       	subi	r20, 0xFD	; 253
    240c:	5f 4f       	sbci	r21, 0xFF	; 255
    240e:	83 e8       	ldi	r24, 0x83	; 131
    2410:	98 e0       	ldi	r25, 0x08	; 8
    2412:	0e 94 68 11 	call	0x22d0	; 0x22d0 <cb>
    2416:	89 2b       	or	r24, r25
    2418:	09 f4       	brne	.+2      	; 0x241c <surroundings+0xc8>
{
count =count+10;
    241a:	2a 96       	adiw	r28, 0x0a	; 10
}
// right
if(cb(IMAGE,xpos+3,ypos)==0 && cb(IMAGE,xpos+3,ypos+1)==0 && cb(IMAGE,xpos+3,ypos+2)==0)
    241c:	60 91 8b 00 	lds	r22, 0x008B
    2420:	70 e0       	ldi	r23, 0x00	; 0
    2422:	6d 5f       	subi	r22, 0xFD	; 253
    2424:	7f 4f       	sbci	r23, 0xFF	; 255
    2426:	40 91 cf 00 	lds	r20, 0x00CF
    242a:	83 e8       	ldi	r24, 0x83	; 131
    242c:	98 e0       	ldi	r25, 0x08	; 8
    242e:	50 e0       	ldi	r21, 0x00	; 0
    2430:	0e 94 68 11 	call	0x22d0	; 0x22d0 <cb>
    2434:	89 2b       	or	r24, r25
    2436:	11 f5       	brne	.+68     	; 0x247c <surroundings+0x128>
    2438:	60 91 8b 00 	lds	r22, 0x008B
    243c:	70 e0       	ldi	r23, 0x00	; 0
    243e:	6d 5f       	subi	r22, 0xFD	; 253
    2440:	7f 4f       	sbci	r23, 0xFF	; 255
    2442:	40 91 cf 00 	lds	r20, 0x00CF
    2446:	50 e0       	ldi	r21, 0x00	; 0
    2448:	4f 5f       	subi	r20, 0xFF	; 255
    244a:	5f 4f       	sbci	r21, 0xFF	; 255
    244c:	83 e8       	ldi	r24, 0x83	; 131
    244e:	98 e0       	ldi	r25, 0x08	; 8
    2450:	0e 94 68 11 	call	0x22d0	; 0x22d0 <cb>
    2454:	89 2b       	or	r24, r25
    2456:	91 f4       	brne	.+36     	; 0x247c <surroundings+0x128>
    2458:	60 91 8b 00 	lds	r22, 0x008B
    245c:	70 e0       	ldi	r23, 0x00	; 0
    245e:	6d 5f       	subi	r22, 0xFD	; 253
    2460:	7f 4f       	sbci	r23, 0xFF	; 255
    2462:	40 91 cf 00 	lds	r20, 0x00CF
    2466:	50 e0       	ldi	r21, 0x00	; 0
    2468:	4e 5f       	subi	r20, 0xFE	; 254
    246a:	5f 4f       	sbci	r21, 0xFF	; 255
    246c:	83 e8       	ldi	r24, 0x83	; 131
    246e:	98 e0       	ldi	r25, 0x08	; 8
    2470:	0e 94 68 11 	call	0x22d0	; 0x22d0 <cb>
    2474:	89 2b       	or	r24, r25
    2476:	11 f4       	brne	.+4      	; 0x247c <surroundings+0x128>
{
count =count+100;
    2478:	cc 59       	subi	r28, 0x9C	; 156
    247a:	df 4f       	sbci	r29, 0xFF	; 255
} 
 // left 
 if(cb(IMAGE,xpos-1,ypos)==0 && cb(IMAGE,xpos-1,ypos+1)==0 && cb(IMAGE,xpos-1,ypos+2)==0)
    247c:	60 91 8b 00 	lds	r22, 0x008B
    2480:	70 e0       	ldi	r23, 0x00	; 0
    2482:	61 50       	subi	r22, 0x01	; 1
    2484:	70 40       	sbci	r23, 0x00	; 0
    2486:	40 91 cf 00 	lds	r20, 0x00CF
    248a:	83 e8       	ldi	r24, 0x83	; 131
    248c:	98 e0       	ldi	r25, 0x08	; 8
    248e:	50 e0       	ldi	r21, 0x00	; 0
    2490:	0e 94 68 11 	call	0x22d0	; 0x22d0 <cb>
    2494:	89 2b       	or	r24, r25
    2496:	11 f5       	brne	.+68     	; 0x24dc <surroundings+0x188>
    2498:	60 91 8b 00 	lds	r22, 0x008B
    249c:	70 e0       	ldi	r23, 0x00	; 0
    249e:	61 50       	subi	r22, 0x01	; 1
    24a0:	70 40       	sbci	r23, 0x00	; 0
    24a2:	40 91 cf 00 	lds	r20, 0x00CF
    24a6:	50 e0       	ldi	r21, 0x00	; 0
    24a8:	4f 5f       	subi	r20, 0xFF	; 255
    24aa:	5f 4f       	sbci	r21, 0xFF	; 255
    24ac:	83 e8       	ldi	r24, 0x83	; 131
    24ae:	98 e0       	ldi	r25, 0x08	; 8
    24b0:	0e 94 68 11 	call	0x22d0	; 0x22d0 <cb>
    24b4:	89 2b       	or	r24, r25
    24b6:	91 f4       	brne	.+36     	; 0x24dc <surroundings+0x188>
    24b8:	60 91 8b 00 	lds	r22, 0x008B
    24bc:	70 e0       	ldi	r23, 0x00	; 0
    24be:	61 50       	subi	r22, 0x01	; 1
    24c0:	70 40       	sbci	r23, 0x00	; 0
    24c2:	40 91 cf 00 	lds	r20, 0x00CF
    24c6:	50 e0       	ldi	r21, 0x00	; 0
    24c8:	4e 5f       	subi	r20, 0xFE	; 254
    24ca:	5f 4f       	sbci	r21, 0xFF	; 255
    24cc:	83 e8       	ldi	r24, 0x83	; 131
    24ce:	98 e0       	ldi	r25, 0x08	; 8
    24d0:	0e 94 68 11 	call	0x22d0	; 0x22d0 <cb>
    24d4:	89 2b       	or	r24, r25
    24d6:	11 f4       	brne	.+4      	; 0x24dc <surroundings+0x188>
{
count =count+1000;
    24d8:	c8 51       	subi	r28, 0x18	; 24
    24da:	dc 4f       	sbci	r29, 0xFC	; 252
}

return count;
}
    24dc:	ce 01       	movw	r24, r28
    24de:	df 91       	pop	r29
    24e0:	cf 91       	pop	r28
    24e2:	08 95       	ret

000024e4 <surroundings_level2>:

int surroundings_level2 ()
{int count=0;
    24e4:	cf 93       	push	r28
    24e6:	df 93       	push	r29
// upward direction 
if(cb(IMAGE2,xpos,ypos-1)==0 && cb(IMAGE2,xpos+1,ypos-1)==0 && cb(IMAGE2,xpos+2,ypos-1)==0)
    24e8:	60 91 8b 00 	lds	r22, 0x008B
    24ec:	40 91 cf 00 	lds	r20, 0x00CF
    24f0:	50 e0       	ldi	r21, 0x00	; 0
    24f2:	41 50       	subi	r20, 0x01	; 1
    24f4:	50 40       	sbci	r21, 0x00	; 0
    24f6:	83 e8       	ldi	r24, 0x83	; 131
    24f8:	94 e0       	ldi	r25, 0x04	; 4
    24fa:	70 e0       	ldi	r23, 0x00	; 0
    24fc:	0e 94 68 11 	call	0x22d0	; 0x22d0 <cb>
    2500:	89 2b       	or	r24, r25
    2502:	19 f5       	brne	.+70     	; 0x254a <surroundings_level2+0x66>
    2504:	60 91 8b 00 	lds	r22, 0x008B
    2508:	70 e0       	ldi	r23, 0x00	; 0
    250a:	6f 5f       	subi	r22, 0xFF	; 255
    250c:	7f 4f       	sbci	r23, 0xFF	; 255
    250e:	40 91 cf 00 	lds	r20, 0x00CF
    2512:	50 e0       	ldi	r21, 0x00	; 0
    2514:	41 50       	subi	r20, 0x01	; 1
    2516:	50 40       	sbci	r21, 0x00	; 0
    2518:	83 e8       	ldi	r24, 0x83	; 131
    251a:	94 e0       	ldi	r25, 0x04	; 4
    251c:	0e 94 68 11 	call	0x22d0	; 0x22d0 <cb>
    2520:	89 2b       	or	r24, r25
    2522:	99 f4       	brne	.+38     	; 0x254a <surroundings_level2+0x66>
    2524:	60 91 8b 00 	lds	r22, 0x008B
    2528:	70 e0       	ldi	r23, 0x00	; 0
    252a:	6e 5f       	subi	r22, 0xFE	; 254
    252c:	7f 4f       	sbci	r23, 0xFF	; 255
    252e:	40 91 cf 00 	lds	r20, 0x00CF
    2532:	50 e0       	ldi	r21, 0x00	; 0
    2534:	41 50       	subi	r20, 0x01	; 1
    2536:	50 40       	sbci	r21, 0x00	; 0
    2538:	83 e8       	ldi	r24, 0x83	; 131
    253a:	94 e0       	ldi	r25, 0x04	; 4
    253c:	0e 94 68 11 	call	0x22d0	; 0x22d0 <cb>
    2540:	89 2b       	or	r24, r25
    2542:	19 f4       	brne	.+6      	; 0x254a <surroundings_level2+0x66>
    2544:	c1 e0       	ldi	r28, 0x01	; 1
    2546:	d0 e0       	ldi	r29, 0x00	; 0
    2548:	02 c0       	rjmp	.+4      	; 0x254e <surroundings_level2+0x6a>
    254a:	c0 e0       	ldi	r28, 0x00	; 0
    254c:	d0 e0       	ldi	r29, 0x00	; 0
{
count =count+1;
}
// downwards
if(cb(IMAGE2,xpos,ypos+3)==0 && cb(IMAGE2,xpos+1,ypos+3)==0 && cb(IMAGE2,xpos+2,ypos+3)==0)
    254e:	60 91 8b 00 	lds	r22, 0x008B
    2552:	40 91 cf 00 	lds	r20, 0x00CF
    2556:	50 e0       	ldi	r21, 0x00	; 0
    2558:	4d 5f       	subi	r20, 0xFD	; 253
    255a:	5f 4f       	sbci	r21, 0xFF	; 255
    255c:	83 e8       	ldi	r24, 0x83	; 131
    255e:	94 e0       	ldi	r25, 0x04	; 4
    2560:	70 e0       	ldi	r23, 0x00	; 0
    2562:	0e 94 68 11 	call	0x22d0	; 0x22d0 <cb>
    2566:	89 2b       	or	r24, r25
    2568:	09 f5       	brne	.+66     	; 0x25ac <surroundings_level2+0xc8>
    256a:	60 91 8b 00 	lds	r22, 0x008B
    256e:	70 e0       	ldi	r23, 0x00	; 0
    2570:	6f 5f       	subi	r22, 0xFF	; 255
    2572:	7f 4f       	sbci	r23, 0xFF	; 255
    2574:	40 91 cf 00 	lds	r20, 0x00CF
    2578:	50 e0       	ldi	r21, 0x00	; 0
    257a:	4d 5f       	subi	r20, 0xFD	; 253
    257c:	5f 4f       	sbci	r21, 0xFF	; 255
    257e:	83 e8       	ldi	r24, 0x83	; 131
    2580:	94 e0       	ldi	r25, 0x04	; 4
    2582:	0e 94 68 11 	call	0x22d0	; 0x22d0 <cb>
    2586:	89 2b       	or	r24, r25
    2588:	89 f4       	brne	.+34     	; 0x25ac <surroundings_level2+0xc8>
    258a:	60 91 8b 00 	lds	r22, 0x008B
    258e:	70 e0       	ldi	r23, 0x00	; 0
    2590:	6e 5f       	subi	r22, 0xFE	; 254
    2592:	7f 4f       	sbci	r23, 0xFF	; 255
    2594:	40 91 cf 00 	lds	r20, 0x00CF
    2598:	50 e0       	ldi	r21, 0x00	; 0
    259a:	4d 5f       	subi	r20, 0xFD	; 253
    259c:	5f 4f       	sbci	r21, 0xFF	; 255
    259e:	83 e8       	ldi	r24, 0x83	; 131
    25a0:	94 e0       	ldi	r25, 0x04	; 4
    25a2:	0e 94 68 11 	call	0x22d0	; 0x22d0 <cb>
    25a6:	89 2b       	or	r24, r25
    25a8:	09 f4       	brne	.+2      	; 0x25ac <surroundings_level2+0xc8>
{
count =count+10;
    25aa:	2a 96       	adiw	r28, 0x0a	; 10
}
// right
if(cb(IMAGE2,xpos+3,ypos)==0 && cb(IMAGE2,xpos+3,ypos+1)==0 && cb(IMAGE2,xpos+3,ypos+2)==0)
    25ac:	60 91 8b 00 	lds	r22, 0x008B
    25b0:	70 e0       	ldi	r23, 0x00	; 0
    25b2:	6d 5f       	subi	r22, 0xFD	; 253
    25b4:	7f 4f       	sbci	r23, 0xFF	; 255
    25b6:	40 91 cf 00 	lds	r20, 0x00CF
    25ba:	83 e8       	ldi	r24, 0x83	; 131
    25bc:	94 e0       	ldi	r25, 0x04	; 4
    25be:	50 e0       	ldi	r21, 0x00	; 0
    25c0:	0e 94 68 11 	call	0x22d0	; 0x22d0 <cb>
    25c4:	89 2b       	or	r24, r25
    25c6:	11 f5       	brne	.+68     	; 0x260c <surroundings_level2+0x128>
    25c8:	60 91 8b 00 	lds	r22, 0x008B
    25cc:	70 e0       	ldi	r23, 0x00	; 0
    25ce:	6d 5f       	subi	r22, 0xFD	; 253
    25d0:	7f 4f       	sbci	r23, 0xFF	; 255
    25d2:	40 91 cf 00 	lds	r20, 0x00CF
    25d6:	50 e0       	ldi	r21, 0x00	; 0
    25d8:	4f 5f       	subi	r20, 0xFF	; 255
    25da:	5f 4f       	sbci	r21, 0xFF	; 255
    25dc:	83 e8       	ldi	r24, 0x83	; 131
    25de:	94 e0       	ldi	r25, 0x04	; 4
    25e0:	0e 94 68 11 	call	0x22d0	; 0x22d0 <cb>
    25e4:	89 2b       	or	r24, r25
    25e6:	91 f4       	brne	.+36     	; 0x260c <surroundings_level2+0x128>
    25e8:	60 91 8b 00 	lds	r22, 0x008B
    25ec:	70 e0       	ldi	r23, 0x00	; 0
    25ee:	6d 5f       	subi	r22, 0xFD	; 253
    25f0:	7f 4f       	sbci	r23, 0xFF	; 255
    25f2:	40 91 cf 00 	lds	r20, 0x00CF
    25f6:	50 e0       	ldi	r21, 0x00	; 0
    25f8:	4e 5f       	subi	r20, 0xFE	; 254
    25fa:	5f 4f       	sbci	r21, 0xFF	; 255
    25fc:	83 e8       	ldi	r24, 0x83	; 131
    25fe:	94 e0       	ldi	r25, 0x04	; 4
    2600:	0e 94 68 11 	call	0x22d0	; 0x22d0 <cb>
    2604:	89 2b       	or	r24, r25
    2606:	11 f4       	brne	.+4      	; 0x260c <surroundings_level2+0x128>
{
count =count+100;
    2608:	cc 59       	subi	r28, 0x9C	; 156
    260a:	df 4f       	sbci	r29, 0xFF	; 255
} 
 // left 
 if(cb(IMAGE2,xpos-1,ypos)==0 && cb(IMAGE2,xpos-1,ypos+1)==0 && cb(IMAGE2,xpos-1,ypos+2)==0)
    260c:	60 91 8b 00 	lds	r22, 0x008B
    2610:	70 e0       	ldi	r23, 0x00	; 0
    2612:	61 50       	subi	r22, 0x01	; 1
    2614:	70 40       	sbci	r23, 0x00	; 0
    2616:	40 91 cf 00 	lds	r20, 0x00CF
    261a:	83 e8       	ldi	r24, 0x83	; 131
    261c:	94 e0       	ldi	r25, 0x04	; 4
    261e:	50 e0       	ldi	r21, 0x00	; 0
    2620:	0e 94 68 11 	call	0x22d0	; 0x22d0 <cb>
    2624:	89 2b       	or	r24, r25
    2626:	11 f5       	brne	.+68     	; 0x266c <surroundings_level2+0x188>
    2628:	60 91 8b 00 	lds	r22, 0x008B
    262c:	70 e0       	ldi	r23, 0x00	; 0
    262e:	61 50       	subi	r22, 0x01	; 1
    2630:	70 40       	sbci	r23, 0x00	; 0
    2632:	40 91 cf 00 	lds	r20, 0x00CF
    2636:	50 e0       	ldi	r21, 0x00	; 0
    2638:	4f 5f       	subi	r20, 0xFF	; 255
    263a:	5f 4f       	sbci	r21, 0xFF	; 255
    263c:	83 e8       	ldi	r24, 0x83	; 131
    263e:	94 e0       	ldi	r25, 0x04	; 4
    2640:	0e 94 68 11 	call	0x22d0	; 0x22d0 <cb>
    2644:	89 2b       	or	r24, r25
    2646:	91 f4       	brne	.+36     	; 0x266c <surroundings_level2+0x188>
    2648:	60 91 8b 00 	lds	r22, 0x008B
    264c:	70 e0       	ldi	r23, 0x00	; 0
    264e:	61 50       	subi	r22, 0x01	; 1
    2650:	70 40       	sbci	r23, 0x00	; 0
    2652:	40 91 cf 00 	lds	r20, 0x00CF
    2656:	50 e0       	ldi	r21, 0x00	; 0
    2658:	4e 5f       	subi	r20, 0xFE	; 254
    265a:	5f 4f       	sbci	r21, 0xFF	; 255
    265c:	83 e8       	ldi	r24, 0x83	; 131
    265e:	94 e0       	ldi	r25, 0x04	; 4
    2660:	0e 94 68 11 	call	0x22d0	; 0x22d0 <cb>
    2664:	89 2b       	or	r24, r25
    2666:	11 f4       	brne	.+4      	; 0x266c <surroundings_level2+0x188>
{
count =count+1000;
    2668:	c8 51       	subi	r28, 0x18	; 24
    266a:	dc 4f       	sbci	r29, 0xFC	; 252
}

return count;
}
    266c:	ce 01       	movw	r24, r28
    266e:	df 91       	pop	r29
    2670:	cf 91       	pop	r28
    2672:	08 95       	ret

00002674 <surroundings_level3>:

int surroundings_level3 ()
{int count=0;
    2674:	cf 93       	push	r28
    2676:	df 93       	push	r29
// upward direction 
if(cb(IMAGE3,xpos,ypos-1)==0 && cb(IMAGE3,xpos+1,ypos-1)==0 && cb(IMAGE3,xpos+2,ypos-1)==0)
    2678:	60 91 8b 00 	lds	r22, 0x008B
    267c:	40 91 cf 00 	lds	r20, 0x00CF
    2680:	50 e0       	ldi	r21, 0x00	; 0
    2682:	41 50       	subi	r20, 0x01	; 1
    2684:	50 40       	sbci	r21, 0x00	; 0
    2686:	83 e8       	ldi	r24, 0x83	; 131
    2688:	90 e0       	ldi	r25, 0x00	; 0
    268a:	70 e0       	ldi	r23, 0x00	; 0
    268c:	0e 94 68 11 	call	0x22d0	; 0x22d0 <cb>
    2690:	89 2b       	or	r24, r25
    2692:	19 f5       	brne	.+70     	; 0x26da <surroundings_level3+0x66>
    2694:	60 91 8b 00 	lds	r22, 0x008B
    2698:	70 e0       	ldi	r23, 0x00	; 0
    269a:	6f 5f       	subi	r22, 0xFF	; 255
    269c:	7f 4f       	sbci	r23, 0xFF	; 255
    269e:	40 91 cf 00 	lds	r20, 0x00CF
    26a2:	50 e0       	ldi	r21, 0x00	; 0
    26a4:	41 50       	subi	r20, 0x01	; 1
    26a6:	50 40       	sbci	r21, 0x00	; 0
    26a8:	83 e8       	ldi	r24, 0x83	; 131
    26aa:	90 e0       	ldi	r25, 0x00	; 0
    26ac:	0e 94 68 11 	call	0x22d0	; 0x22d0 <cb>
    26b0:	89 2b       	or	r24, r25
    26b2:	99 f4       	brne	.+38     	; 0x26da <surroundings_level3+0x66>
    26b4:	60 91 8b 00 	lds	r22, 0x008B
    26b8:	70 e0       	ldi	r23, 0x00	; 0
    26ba:	6e 5f       	subi	r22, 0xFE	; 254
    26bc:	7f 4f       	sbci	r23, 0xFF	; 255
    26be:	40 91 cf 00 	lds	r20, 0x00CF
    26c2:	50 e0       	ldi	r21, 0x00	; 0
    26c4:	41 50       	subi	r20, 0x01	; 1
    26c6:	50 40       	sbci	r21, 0x00	; 0
    26c8:	83 e8       	ldi	r24, 0x83	; 131
    26ca:	90 e0       	ldi	r25, 0x00	; 0
    26cc:	0e 94 68 11 	call	0x22d0	; 0x22d0 <cb>
    26d0:	89 2b       	or	r24, r25
    26d2:	19 f4       	brne	.+6      	; 0x26da <surroundings_level3+0x66>
    26d4:	c1 e0       	ldi	r28, 0x01	; 1
    26d6:	d0 e0       	ldi	r29, 0x00	; 0
    26d8:	02 c0       	rjmp	.+4      	; 0x26de <surroundings_level3+0x6a>
    26da:	c0 e0       	ldi	r28, 0x00	; 0
    26dc:	d0 e0       	ldi	r29, 0x00	; 0
{
count =count+1;
}
// downwards
if(cb(IMAGE3,xpos,ypos+3)==0 && cb(IMAGE3,xpos+1,ypos+3)==0 && cb(IMAGE3,xpos+2,ypos+3)==0)
    26de:	60 91 8b 00 	lds	r22, 0x008B
    26e2:	40 91 cf 00 	lds	r20, 0x00CF
    26e6:	50 e0       	ldi	r21, 0x00	; 0
    26e8:	4d 5f       	subi	r20, 0xFD	; 253
    26ea:	5f 4f       	sbci	r21, 0xFF	; 255
    26ec:	83 e8       	ldi	r24, 0x83	; 131
    26ee:	90 e0       	ldi	r25, 0x00	; 0
    26f0:	70 e0       	ldi	r23, 0x00	; 0
    26f2:	0e 94 68 11 	call	0x22d0	; 0x22d0 <cb>
    26f6:	89 2b       	or	r24, r25
    26f8:	09 f5       	brne	.+66     	; 0x273c <surroundings_level3+0xc8>
    26fa:	60 91 8b 00 	lds	r22, 0x008B
    26fe:	70 e0       	ldi	r23, 0x00	; 0
    2700:	6f 5f       	subi	r22, 0xFF	; 255
    2702:	7f 4f       	sbci	r23, 0xFF	; 255
    2704:	40 91 cf 00 	lds	r20, 0x00CF
    2708:	50 e0       	ldi	r21, 0x00	; 0
    270a:	4d 5f       	subi	r20, 0xFD	; 253
    270c:	5f 4f       	sbci	r21, 0xFF	; 255
    270e:	83 e8       	ldi	r24, 0x83	; 131
    2710:	90 e0       	ldi	r25, 0x00	; 0
    2712:	0e 94 68 11 	call	0x22d0	; 0x22d0 <cb>
    2716:	89 2b       	or	r24, r25
    2718:	89 f4       	brne	.+34     	; 0x273c <surroundings_level3+0xc8>
    271a:	60 91 8b 00 	lds	r22, 0x008B
    271e:	70 e0       	ldi	r23, 0x00	; 0
    2720:	6e 5f       	subi	r22, 0xFE	; 254
    2722:	7f 4f       	sbci	r23, 0xFF	; 255
    2724:	40 91 cf 00 	lds	r20, 0x00CF
    2728:	50 e0       	ldi	r21, 0x00	; 0
    272a:	4d 5f       	subi	r20, 0xFD	; 253
    272c:	5f 4f       	sbci	r21, 0xFF	; 255
    272e:	83 e8       	ldi	r24, 0x83	; 131
    2730:	90 e0       	ldi	r25, 0x00	; 0
    2732:	0e 94 68 11 	call	0x22d0	; 0x22d0 <cb>
    2736:	89 2b       	or	r24, r25
    2738:	09 f4       	brne	.+2      	; 0x273c <surroundings_level3+0xc8>
{
count =count+10;
    273a:	2a 96       	adiw	r28, 0x0a	; 10
}
// right
if(cb(IMAGE3,xpos+3,ypos)==0 && cb(IMAGE3,xpos+3,ypos+1)==0 && cb(IMAGE3,xpos+3,ypos+2)==0)
    273c:	60 91 8b 00 	lds	r22, 0x008B
    2740:	70 e0       	ldi	r23, 0x00	; 0
    2742:	6d 5f       	subi	r22, 0xFD	; 253
    2744:	7f 4f       	sbci	r23, 0xFF	; 255
    2746:	40 91 cf 00 	lds	r20, 0x00CF
    274a:	83 e8       	ldi	r24, 0x83	; 131
    274c:	90 e0       	ldi	r25, 0x00	; 0
    274e:	50 e0       	ldi	r21, 0x00	; 0
    2750:	0e 94 68 11 	call	0x22d0	; 0x22d0 <cb>
    2754:	89 2b       	or	r24, r25
    2756:	11 f5       	brne	.+68     	; 0x279c <surroundings_level3+0x128>
    2758:	60 91 8b 00 	lds	r22, 0x008B
    275c:	70 e0       	ldi	r23, 0x00	; 0
    275e:	6d 5f       	subi	r22, 0xFD	; 253
    2760:	7f 4f       	sbci	r23, 0xFF	; 255
    2762:	40 91 cf 00 	lds	r20, 0x00CF
    2766:	50 e0       	ldi	r21, 0x00	; 0
    2768:	4f 5f       	subi	r20, 0xFF	; 255
    276a:	5f 4f       	sbci	r21, 0xFF	; 255
    276c:	83 e8       	ldi	r24, 0x83	; 131
    276e:	90 e0       	ldi	r25, 0x00	; 0
    2770:	0e 94 68 11 	call	0x22d0	; 0x22d0 <cb>
    2774:	89 2b       	or	r24, r25
    2776:	91 f4       	brne	.+36     	; 0x279c <surroundings_level3+0x128>
    2778:	60 91 8b 00 	lds	r22, 0x008B
    277c:	70 e0       	ldi	r23, 0x00	; 0
    277e:	6d 5f       	subi	r22, 0xFD	; 253
    2780:	7f 4f       	sbci	r23, 0xFF	; 255
    2782:	40 91 cf 00 	lds	r20, 0x00CF
    2786:	50 e0       	ldi	r21, 0x00	; 0
    2788:	4e 5f       	subi	r20, 0xFE	; 254
    278a:	5f 4f       	sbci	r21, 0xFF	; 255
    278c:	83 e8       	ldi	r24, 0x83	; 131
    278e:	90 e0       	ldi	r25, 0x00	; 0
    2790:	0e 94 68 11 	call	0x22d0	; 0x22d0 <cb>
    2794:	89 2b       	or	r24, r25
    2796:	11 f4       	brne	.+4      	; 0x279c <surroundings_level3+0x128>
{
count =count+100;
    2798:	cc 59       	subi	r28, 0x9C	; 156
    279a:	df 4f       	sbci	r29, 0xFF	; 255
} 
 // left 
 if(cb(IMAGE3,xpos-1,ypos)==0 && cb(IMAGE3,xpos-1,ypos+1)==0 && cb(IMAGE3,xpos-1,ypos+2)==0)
    279c:	60 91 8b 00 	lds	r22, 0x008B
    27a0:	70 e0       	ldi	r23, 0x00	; 0
    27a2:	61 50       	subi	r22, 0x01	; 1
    27a4:	70 40       	sbci	r23, 0x00	; 0
    27a6:	40 91 cf 00 	lds	r20, 0x00CF
    27aa:	83 e8       	ldi	r24, 0x83	; 131
    27ac:	90 e0       	ldi	r25, 0x00	; 0
    27ae:	50 e0       	ldi	r21, 0x00	; 0
    27b0:	0e 94 68 11 	call	0x22d0	; 0x22d0 <cb>
    27b4:	89 2b       	or	r24, r25
    27b6:	11 f5       	brne	.+68     	; 0x27fc <surroundings_level3+0x188>
    27b8:	60 91 8b 00 	lds	r22, 0x008B
    27bc:	70 e0       	ldi	r23, 0x00	; 0
    27be:	61 50       	subi	r22, 0x01	; 1
    27c0:	70 40       	sbci	r23, 0x00	; 0
    27c2:	40 91 cf 00 	lds	r20, 0x00CF
    27c6:	50 e0       	ldi	r21, 0x00	; 0
    27c8:	4f 5f       	subi	r20, 0xFF	; 255
    27ca:	5f 4f       	sbci	r21, 0xFF	; 255
    27cc:	83 e8       	ldi	r24, 0x83	; 131
    27ce:	90 e0       	ldi	r25, 0x00	; 0
    27d0:	0e 94 68 11 	call	0x22d0	; 0x22d0 <cb>
    27d4:	89 2b       	or	r24, r25
    27d6:	91 f4       	brne	.+36     	; 0x27fc <surroundings_level3+0x188>
    27d8:	60 91 8b 00 	lds	r22, 0x008B
    27dc:	70 e0       	ldi	r23, 0x00	; 0
    27de:	61 50       	subi	r22, 0x01	; 1
    27e0:	70 40       	sbci	r23, 0x00	; 0
    27e2:	40 91 cf 00 	lds	r20, 0x00CF
    27e6:	50 e0       	ldi	r21, 0x00	; 0
    27e8:	4e 5f       	subi	r20, 0xFE	; 254
    27ea:	5f 4f       	sbci	r21, 0xFF	; 255
    27ec:	83 e8       	ldi	r24, 0x83	; 131
    27ee:	90 e0       	ldi	r25, 0x00	; 0
    27f0:	0e 94 68 11 	call	0x22d0	; 0x22d0 <cb>
    27f4:	89 2b       	or	r24, r25
    27f6:	11 f4       	brne	.+4      	; 0x27fc <surroundings_level3+0x188>
{
count =count+1000;
    27f8:	c8 51       	subi	r28, 0x18	; 24
    27fa:	dc 4f       	sbci	r29, 0xFC	; 252
}

return count;
}
    27fc:	ce 01       	movw	r24, r28
    27fe:	df 91       	pop	r29
    2800:	cf 91       	pop	r28
    2802:	08 95       	ret

00002804 <OpeningCur>:


// function to open the curtain when the game starts
void OpeningCur(char c)
{	
    2804:	ff 92       	push	r15
    2806:	0f 93       	push	r16
    2808:	1f 93       	push	r17
	int i,k;
	if(c=='W')
    280a:	87 35       	cpi	r24, 0x57	; 87
    280c:	a1 f4       	brne	.+40     	; 0x2836 <OpeningCur+0x32>
    280e:	10 e4       	ldi	r17, 0x40	; 64
	for(i=64,k=63;i>=0,k<=127;i--,k++)
	{
		
		ks0108FillRect(i, 1, 1, 61, WHITE);

		ks0108FillRect(k, 1, 1, 61, WHITE);
    2810:	0f e7       	ldi	r16, 0x7F	; 127
    2812:	f0 2e       	mov	r15, r16
	if(c=='W')
	{
	for(i=64,k=63;i>=0,k<=127;i--,k++)
	{
		
		ks0108FillRect(i, 1, 1, 61, WHITE);
    2814:	81 2f       	mov	r24, r17
    2816:	61 e0       	ldi	r22, 0x01	; 1
    2818:	41 e0       	ldi	r20, 0x01	; 1
    281a:	2d e3       	ldi	r18, 0x3D	; 61
    281c:	00 e0       	ldi	r16, 0x00	; 0
    281e:	0e 94 5d 0d 	call	0x1aba	; 0x1aba <ks0108FillRect>

		ks0108FillRect(k, 1, 1, 61, WHITE);
    2822:	8f 2d       	mov	r24, r15
    2824:	81 1b       	sub	r24, r17
    2826:	61 e0       	ldi	r22, 0x01	; 1
    2828:	41 e0       	ldi	r20, 0x01	; 1
    282a:	2d e3       	ldi	r18, 0x3D	; 61
    282c:	0e 94 5d 0d 	call	0x1aba	; 0x1aba <ks0108FillRect>
    2830:	11 50       	subi	r17, 0x01	; 1
    2832:	80 f7       	brcc	.-32     	; 0x2814 <OpeningCur+0x10>
    2834:	15 c0       	rjmp	.+42     	; 0x2860 <OpeningCur+0x5c>
		
		
	}
	}
	if(c=='B')
    2836:	82 34       	cpi	r24, 0x42	; 66
    2838:	99 f4       	brne	.+38     	; 0x2860 <OpeningCur+0x5c>
    283a:	10 e4       	ldi	r17, 0x40	; 64
	for(i=64,k=64;i>=0,k<=128;i--,k++)
	{
		
		ks0108FillRect(i, 1, 1, 62, BLACK);

		ks0108FillRect(k, 1, 1, 62, BLACK);
    283c:	b0 e8       	ldi	r27, 0x80	; 128
    283e:	fb 2e       	mov	r15, r27
	if(c=='B')
	{
	for(i=64,k=64;i>=0,k<=128;i--,k++)
	{
		
		ks0108FillRect(i, 1, 1, 62, BLACK);
    2840:	81 2f       	mov	r24, r17
    2842:	61 e0       	ldi	r22, 0x01	; 1
    2844:	41 e0       	ldi	r20, 0x01	; 1
    2846:	2e e3       	ldi	r18, 0x3E	; 62
    2848:	0f ef       	ldi	r16, 0xFF	; 255
    284a:	0e 94 5d 0d 	call	0x1aba	; 0x1aba <ks0108FillRect>

		ks0108FillRect(k, 1, 1, 62, BLACK);
    284e:	8f 2d       	mov	r24, r15
    2850:	81 1b       	sub	r24, r17
    2852:	61 e0       	ldi	r22, 0x01	; 1
    2854:	41 e0       	ldi	r20, 0x01	; 1
    2856:	2e e3       	ldi	r18, 0x3E	; 62
    2858:	0e 94 5d 0d 	call	0x1aba	; 0x1aba <ks0108FillRect>
    285c:	11 50       	subi	r17, 0x01	; 1
    285e:	80 f7       	brcc	.-32     	; 0x2840 <OpeningCur+0x3c>
		
		
	}
	}
}
    2860:	1f 91       	pop	r17
    2862:	0f 91       	pop	r16
    2864:	ff 90       	pop	r15
    2866:	08 95       	ret

00002868 <CrVBlock>:
// functions for  creating lines 
void CrVBlock(int x, int y, int n)
{	int i;
    2868:	ef 92       	push	r14
    286a:	ff 92       	push	r15
    286c:	0f 93       	push	r16
    286e:	1f 93       	push	r17
    2870:	cf 93       	push	r28
    2872:	df 93       	push	r29
    2874:	e8 2e       	mov	r14, r24
    2876:	f6 2e       	mov	r15, r22
    2878:	8a 01       	movw	r16, r20
    287a:	c0 e0       	ldi	r28, 0x00	; 0
    287c:	d0 e0       	ldi	r29, 0x00	; 0
    287e:	08 c0       	rjmp	.+16     	; 0x2890 <CrVBlock+0x28>

	for(i=0;i<n;i++)
	{
	ks0108SetDot(x,y+i,BLACK);
    2880:	ce 01       	movw	r24, r28
    2882:	8f 0d       	add	r24, r15
    2884:	68 2f       	mov	r22, r24
    2886:	8e 2d       	mov	r24, r14
    2888:	4f ef       	ldi	r20, 0xFF	; 255
    288a:	0e 94 87 0c 	call	0x190e	; 0x190e <ks0108SetDot>
}
// functions for  creating lines 
void CrVBlock(int x, int y, int n)
{	int i;

	for(i=0;i<n;i++)
    288e:	21 96       	adiw	r28, 0x01	; 1
    2890:	c0 17       	cp	r28, r16
    2892:	d1 07       	cpc	r29, r17
    2894:	ac f3       	brlt	.-22     	; 0x2880 <CrVBlock+0x18>
	{
	ks0108SetDot(x,y+i,BLACK);
	}
}
    2896:	df 91       	pop	r29
    2898:	cf 91       	pop	r28
    289a:	1f 91       	pop	r17
    289c:	0f 91       	pop	r16
    289e:	ff 90       	pop	r15
    28a0:	ef 90       	pop	r14
    28a2:	08 95       	ret

000028a4 <CrHBlock>:

void CrHBlock(int x, int y, int n)
{	int i;
    28a4:	ef 92       	push	r14
    28a6:	ff 92       	push	r15
    28a8:	0f 93       	push	r16
    28aa:	1f 93       	push	r17
    28ac:	cf 93       	push	r28
    28ae:	df 93       	push	r29
    28b0:	e8 2e       	mov	r14, r24
    28b2:	f6 2e       	mov	r15, r22
    28b4:	8a 01       	movw	r16, r20
    28b6:	c0 e0       	ldi	r28, 0x00	; 0
    28b8:	d0 e0       	ldi	r29, 0x00	; 0
    28ba:	07 c0       	rjmp	.+14     	; 0x28ca <CrHBlock+0x26>

	for(i=0;i<n;i++)
	{
	ks0108SetDot(x+i,y,BLACK);
    28bc:	8e 2d       	mov	r24, r14
    28be:	8c 0f       	add	r24, r28
    28c0:	6f 2d       	mov	r22, r15
    28c2:	4f ef       	ldi	r20, 0xFF	; 255
    28c4:	0e 94 87 0c 	call	0x190e	; 0x190e <ks0108SetDot>
}

void CrHBlock(int x, int y, int n)
{	int i;

	for(i=0;i<n;i++)
    28c8:	21 96       	adiw	r28, 0x01	; 1
    28ca:	c0 17       	cp	r28, r16
    28cc:	d1 07       	cpc	r29, r17
    28ce:	b4 f3       	brlt	.-20     	; 0x28bc <CrHBlock+0x18>
	{
	ks0108SetDot(x+i,y,BLACK);
	}
}
    28d0:	df 91       	pop	r29
    28d2:	cf 91       	pop	r28
    28d4:	1f 91       	pop	r17
    28d6:	0f 91       	pop	r16
    28d8:	ff 90       	pop	r15
    28da:	ef 90       	pop	r14
    28dc:	08 95       	ret

000028de <ErVBlock>:

void ErVBlock(int x, int y, int n)
{
    28de:	ef 92       	push	r14
    28e0:	ff 92       	push	r15
    28e2:	0f 93       	push	r16
    28e4:	1f 93       	push	r17
    28e6:	cf 93       	push	r28
    28e8:	df 93       	push	r29
    28ea:	e8 2e       	mov	r14, r24
    28ec:	f6 2e       	mov	r15, r22
    28ee:	8a 01       	movw	r16, r20
    28f0:	c0 e0       	ldi	r28, 0x00	; 0
    28f2:	d0 e0       	ldi	r29, 0x00	; 0
    28f4:	08 c0       	rjmp	.+16     	; 0x2906 <ErVBlock+0x28>
	int i;
	for(i=0;i<n;i++)
	{
	ks0108SetDot(x,y+i,WHITE);
    28f6:	ce 01       	movw	r24, r28
    28f8:	8f 0d       	add	r24, r15
    28fa:	68 2f       	mov	r22, r24
    28fc:	8e 2d       	mov	r24, r14
    28fe:	40 e0       	ldi	r20, 0x00	; 0
    2900:	0e 94 87 0c 	call	0x190e	; 0x190e <ks0108SetDot>
}

void ErVBlock(int x, int y, int n)
{
	int i;
	for(i=0;i<n;i++)
    2904:	21 96       	adiw	r28, 0x01	; 1
    2906:	c0 17       	cp	r28, r16
    2908:	d1 07       	cpc	r29, r17
    290a:	ac f3       	brlt	.-22     	; 0x28f6 <ErVBlock+0x18>
	{
	ks0108SetDot(x,y+i,WHITE);
	}
}
    290c:	df 91       	pop	r29
    290e:	cf 91       	pop	r28
    2910:	1f 91       	pop	r17
    2912:	0f 91       	pop	r16
    2914:	ff 90       	pop	r15
    2916:	ef 90       	pop	r14
    2918:	08 95       	ret

0000291a <ErHBlock>:

void ErHBlock(int x, int y, int n)
{
    291a:	ef 92       	push	r14
    291c:	ff 92       	push	r15
    291e:	0f 93       	push	r16
    2920:	1f 93       	push	r17
    2922:	cf 93       	push	r28
    2924:	df 93       	push	r29
    2926:	e8 2e       	mov	r14, r24
    2928:	f6 2e       	mov	r15, r22
    292a:	8a 01       	movw	r16, r20
    292c:	c0 e0       	ldi	r28, 0x00	; 0
    292e:	d0 e0       	ldi	r29, 0x00	; 0
    2930:	07 c0       	rjmp	.+14     	; 0x2940 <ErHBlock+0x26>
	int i;
	for(i=0;i<n;i++)
	{
	ks0108SetDot(x+i,y,WHITE);
    2932:	8e 2d       	mov	r24, r14
    2934:	8c 0f       	add	r24, r28
    2936:	6f 2d       	mov	r22, r15
    2938:	40 e0       	ldi	r20, 0x00	; 0
    293a:	0e 94 87 0c 	call	0x190e	; 0x190e <ks0108SetDot>
}

void ErHBlock(int x, int y, int n)
{
	int i;
	for(i=0;i<n;i++)
    293e:	21 96       	adiw	r28, 0x01	; 1
    2940:	c0 17       	cp	r28, r16
    2942:	d1 07       	cpc	r29, r17
    2944:	b4 f3       	brlt	.-20     	; 0x2932 <ErHBlock+0x18>
	{
	ks0108SetDot(x+i,y,WHITE);
	}
}
    2946:	df 91       	pop	r29
    2948:	cf 91       	pop	r28
    294a:	1f 91       	pop	r17
    294c:	0f 91       	pop	r16
    294e:	ff 90       	pop	r15
    2950:	ef 90       	pop	r14
    2952:	08 95       	ret

00002954 <print_num>:

// functions to print the number
void print_num(int x, int y, int n)
{
    2954:	ef 92       	push	r14
    2956:	ff 92       	push	r15
    2958:	0f 93       	push	r16
    295a:	1f 93       	push	r17
    295c:	cf 93       	push	r28
    295e:	df 93       	push	r29
    2960:	7c 01       	movw	r14, r24
    2962:	eb 01       	movw	r28, r22
	switch(n)
    2964:	44 30       	cpi	r20, 0x04	; 4
    2966:	51 05       	cpc	r21, r1
    2968:	09 f4       	brne	.+2      	; 0x296c <print_num+0x18>
    296a:	7c c0       	rjmp	.+248    	; 0x2a64 <print_num+0x110>
    296c:	45 30       	cpi	r20, 0x05	; 5
    296e:	51 05       	cpc	r21, r1
    2970:	94 f4       	brge	.+36     	; 0x2996 <print_num+0x42>
    2972:	41 30       	cpi	r20, 0x01	; 1
    2974:	51 05       	cpc	r21, r1
    2976:	e9 f1       	breq	.+122    	; 0x29f2 <print_num+0x9e>
    2978:	42 30       	cpi	r20, 0x02	; 2
    297a:	51 05       	cpc	r21, r1
    297c:	1c f4       	brge	.+6      	; 0x2984 <print_num+0x30>
    297e:	45 2b       	or	r20, r21
    2980:	19 f1       	breq	.+70     	; 0x29c8 <print_num+0x74>
    2982:	29 c1       	rjmp	.+594    	; 0x2bd6 <print_num+0x282>
    2984:	42 30       	cpi	r20, 0x02	; 2
    2986:	51 05       	cpc	r21, r1
    2988:	09 f4       	brne	.+2      	; 0x298c <print_num+0x38>
    298a:	42 c0       	rjmp	.+132    	; 0x2a10 <print_num+0xbc>
    298c:	43 30       	cpi	r20, 0x03	; 3
    298e:	51 05       	cpc	r21, r1
    2990:	09 f0       	breq	.+2      	; 0x2994 <print_num+0x40>
    2992:	21 c1       	rjmp	.+578    	; 0x2bd6 <print_num+0x282>
    2994:	55 c0       	rjmp	.+170    	; 0x2a40 <print_num+0xec>
    2996:	47 30       	cpi	r20, 0x07	; 7
    2998:	51 05       	cpc	r21, r1
    299a:	09 f4       	brne	.+2      	; 0x299e <print_num+0x4a>
    299c:	c7 c0       	rjmp	.+398    	; 0x2b2c <print_num+0x1d8>
    299e:	48 30       	cpi	r20, 0x08	; 8
    29a0:	51 05       	cpc	r21, r1
    29a2:	4c f4       	brge	.+18     	; 0x29b6 <print_num+0x62>
    29a4:	45 30       	cpi	r20, 0x05	; 5
    29a6:	51 05       	cpc	r21, r1
    29a8:	09 f4       	brne	.+2      	; 0x29ac <print_num+0x58>
    29aa:	7f c0       	rjmp	.+254    	; 0x2aaa <print_num+0x156>
    29ac:	46 30       	cpi	r20, 0x06	; 6
    29ae:	51 05       	cpc	r21, r1
    29b0:	09 f0       	breq	.+2      	; 0x29b4 <print_num+0x60>
    29b2:	11 c1       	rjmp	.+546    	; 0x2bd6 <print_num+0x282>
    29b4:	98 c0       	rjmp	.+304    	; 0x2ae6 <print_num+0x192>
    29b6:	48 30       	cpi	r20, 0x08	; 8
    29b8:	51 05       	cpc	r21, r1
    29ba:	09 f4       	brne	.+2      	; 0x29be <print_num+0x6a>
    29bc:	c7 c0       	rjmp	.+398    	; 0x2b4c <print_num+0x1f8>
    29be:	49 30       	cpi	r20, 0x09	; 9
    29c0:	51 05       	cpc	r21, r1
    29c2:	09 f0       	breq	.+2      	; 0x29c6 <print_num+0x72>
    29c4:	08 c1       	rjmp	.+528    	; 0x2bd6 <print_num+0x282>
    29c6:	e0 c0       	rjmp	.+448    	; 0x2b88 <print_num+0x234>
	{
	case 0:
	{
	CrHBlock(x,y,5);
    29c8:	45 e0       	ldi	r20, 0x05	; 5
    29ca:	50 e0       	ldi	r21, 0x00	; 0
    29cc:	0e 94 52 14 	call	0x28a4	; 0x28a4 <CrHBlock>
	CrHBlock(x,y+3,5);
    29d0:	be 01       	movw	r22, r28
    29d2:	6d 5f       	subi	r22, 0xFD	; 253
    29d4:	7f 4f       	sbci	r23, 0xFF	; 255
    29d6:	c7 01       	movw	r24, r14
    29d8:	45 e0       	ldi	r20, 0x05	; 5
    29da:	50 e0       	ldi	r21, 0x00	; 0
    29dc:	0e 94 52 14 	call	0x28a4	; 0x28a4 <CrHBlock>
	CrVBlock(x+4,y,3);
    29e0:	c7 01       	movw	r24, r14
    29e2:	04 96       	adiw	r24, 0x04	; 4
    29e4:	be 01       	movw	r22, r28
    29e6:	43 e0       	ldi	r20, 0x03	; 3
    29e8:	50 e0       	ldi	r21, 0x00	; 0
    29ea:	0e 94 34 14 	call	0x2868	; 0x2868 <CrVBlock>
	CrVBlock(x,y,3);
    29ee:	c7 01       	movw	r24, r14
    29f0:	97 c0       	rjmp	.+302    	; 0x2b20 <print_num+0x1cc>
	break;
	}
	case 1:
	{
	CrHBlock(x,y,5);
    29f2:	45 e0       	ldi	r20, 0x05	; 5
    29f4:	50 e0       	ldi	r21, 0x00	; 0
    29f6:	0e 94 52 14 	call	0x28a4	; 0x28a4 <CrHBlock>
	CrVBlock(x+4,y-1,3);
    29fa:	21 97       	sbiw	r28, 0x01	; 1
    29fc:	c7 01       	movw	r24, r14
    29fe:	04 96       	adiw	r24, 0x04	; 4
    2a00:	be 01       	movw	r22, r28
    2a02:	43 e0       	ldi	r20, 0x03	; 3
    2a04:	50 e0       	ldi	r21, 0x00	; 0
    2a06:	0e 94 34 14 	call	0x2868	; 0x2868 <CrVBlock>
	CrVBlock(x,y+1,1);
    2a0a:	22 96       	adiw	r28, 0x02	; 2
    2a0c:	c7 01       	movw	r24, r14
    2a0e:	49 c0       	rjmp	.+146    	; 0x2aa2 <print_num+0x14e>
	break;
	}
	case 2:
	{
	CrVBlock(x,y,3);
    2a10:	43 e0       	ldi	r20, 0x03	; 3
    2a12:	50 e0       	ldi	r21, 0x00	; 0
    2a14:	0e 94 34 14 	call	0x2868	; 0x2868 <CrVBlock>
	CrHBlock(x,y,3);
    2a18:	c7 01       	movw	r24, r14
    2a1a:	be 01       	movw	r22, r28
    2a1c:	43 e0       	ldi	r20, 0x03	; 3
    2a1e:	50 e0       	ldi	r21, 0x00	; 0
    2a20:	0e 94 52 14 	call	0x28a4	; 0x28a4 <CrHBlock>
	CrVBlock(x+2,y,3);
    2a24:	87 01       	movw	r16, r14
    2a26:	0e 5f       	subi	r16, 0xFE	; 254
    2a28:	1f 4f       	sbci	r17, 0xFF	; 255
    2a2a:	c8 01       	movw	r24, r16
    2a2c:	be 01       	movw	r22, r28
    2a2e:	43 e0       	ldi	r20, 0x03	; 3
    2a30:	50 e0       	ldi	r21, 0x00	; 0
    2a32:	0e 94 34 14 	call	0x2868	; 0x2868 <CrVBlock>
	CrHBlock(x+2,y+2,3);
    2a36:	be 01       	movw	r22, r28
    2a38:	6e 5f       	subi	r22, 0xFE	; 254
    2a3a:	7f 4f       	sbci	r23, 0xFF	; 255
    2a3c:	c8 01       	movw	r24, r16
    2a3e:	4c c0       	rjmp	.+152    	; 0x2ad8 <print_num+0x184>
	CrVBlock(x+4,y,3);
	break;
	}
	case 3:
	{
	CrHBlock(x,y,5);
    2a40:	45 e0       	ldi	r20, 0x05	; 5
    2a42:	50 e0       	ldi	r21, 0x00	; 0
    2a44:	0e 94 52 14 	call	0x28a4	; 0x28a4 <CrHBlock>
	CrVBlock(x,y,3);
    2a48:	c7 01       	movw	r24, r14
    2a4a:	be 01       	movw	r22, r28
    2a4c:	43 e0       	ldi	r20, 0x03	; 3
    2a4e:	50 e0       	ldi	r21, 0x00	; 0
    2a50:	0e 94 34 14 	call	0x2868	; 0x2868 <CrVBlock>
	CrVBlock(x+2,y,3);
    2a54:	c7 01       	movw	r24, r14
    2a56:	02 96       	adiw	r24, 0x02	; 2
    2a58:	be 01       	movw	r22, r28
    2a5a:	43 e0       	ldi	r20, 0x03	; 3
    2a5c:	50 e0       	ldi	r21, 0x00	; 0
    2a5e:	0e 94 34 14 	call	0x2868	; 0x2868 <CrVBlock>
    2a62:	3e c0       	rjmp	.+124    	; 0x2ae0 <print_num+0x18c>
	CrVBlock(x+4,y,3);
	break;
	}
	case 4:
	{
	CrHBlock(x,y,5);
    2a64:	45 e0       	ldi	r20, 0x05	; 5
    2a66:	50 e0       	ldi	r21, 0x00	; 0
    2a68:	0e 94 52 14 	call	0x28a4	; 0x28a4 <CrHBlock>
	CrVBlock(x+3,y-1,4);
    2a6c:	be 01       	movw	r22, r28
    2a6e:	61 50       	subi	r22, 0x01	; 1
    2a70:	70 40       	sbci	r23, 0x00	; 0
    2a72:	c7 01       	movw	r24, r14
    2a74:	03 96       	adiw	r24, 0x03	; 3
    2a76:	44 e0       	ldi	r20, 0x04	; 4
    2a78:	50 e0       	ldi	r21, 0x00	; 0
    2a7a:	0e 94 34 14 	call	0x2868	; 0x2868 <CrVBlock>
	CrVBlock(x+1,y+2,1);
    2a7e:	be 01       	movw	r22, r28
    2a80:	6e 5f       	subi	r22, 0xFE	; 254
    2a82:	7f 4f       	sbci	r23, 0xFF	; 255
    2a84:	c7 01       	movw	r24, r14
    2a86:	01 96       	adiw	r24, 0x01	; 1
    2a88:	41 e0       	ldi	r20, 0x01	; 1
    2a8a:	50 e0       	ldi	r21, 0x00	; 0
    2a8c:	0e 94 34 14 	call	0x2868	; 0x2868 <CrVBlock>
	CrVBlock(x,y,2);
    2a90:	c7 01       	movw	r24, r14
    2a92:	be 01       	movw	r22, r28
    2a94:	42 e0       	ldi	r20, 0x02	; 2
    2a96:	50 e0       	ldi	r21, 0x00	; 0
    2a98:	0e 94 34 14 	call	0x2868	; 0x2868 <CrVBlock>
	CrVBlock(x+2,y+3,1);
    2a9c:	23 96       	adiw	r28, 0x03	; 3
    2a9e:	c7 01       	movw	r24, r14
    2aa0:	02 96       	adiw	r24, 0x02	; 2
    2aa2:	be 01       	movw	r22, r28
    2aa4:	41 e0       	ldi	r20, 0x01	; 1
    2aa6:	50 e0       	ldi	r21, 0x00	; 0
    2aa8:	3e c0       	rjmp	.+124    	; 0x2b26 <print_num+0x1d2>
	break;
	}
	case 5:
	{
	CrHBlock(x,y+2,3);
    2aaa:	6e 5f       	subi	r22, 0xFE	; 254
    2aac:	7f 4f       	sbci	r23, 0xFF	; 255
    2aae:	43 e0       	ldi	r20, 0x03	; 3
    2ab0:	50 e0       	ldi	r21, 0x00	; 0
    2ab2:	0e 94 52 14 	call	0x28a4	; 0x28a4 <CrHBlock>
	CrVBlock(x,y,3);
    2ab6:	c7 01       	movw	r24, r14
    2ab8:	be 01       	movw	r22, r28
    2aba:	43 e0       	ldi	r20, 0x03	; 3
    2abc:	50 e0       	ldi	r21, 0x00	; 0
    2abe:	0e 94 34 14 	call	0x2868	; 0x2868 <CrVBlock>
	CrVBlock(x+2,y,3);
    2ac2:	87 01       	movw	r16, r14
    2ac4:	0e 5f       	subi	r16, 0xFE	; 254
    2ac6:	1f 4f       	sbci	r17, 0xFF	; 255
    2ac8:	c8 01       	movw	r24, r16
    2aca:	be 01       	movw	r22, r28
    2acc:	43 e0       	ldi	r20, 0x03	; 3
    2ace:	50 e0       	ldi	r21, 0x00	; 0
    2ad0:	0e 94 34 14 	call	0x2868	; 0x2868 <CrVBlock>
	CrHBlock(x+2,y,3);
    2ad4:	c8 01       	movw	r24, r16
    2ad6:	be 01       	movw	r22, r28
    2ad8:	43 e0       	ldi	r20, 0x03	; 3
    2ada:	50 e0       	ldi	r21, 0x00	; 0
    2adc:	0e 94 52 14 	call	0x28a4	; 0x28a4 <CrHBlock>
	CrVBlock(x+4,y,3);
    2ae0:	c7 01       	movw	r24, r14
    2ae2:	04 96       	adiw	r24, 0x04	; 4
    2ae4:	1d c0       	rjmp	.+58     	; 0x2b20 <print_num+0x1cc>
	break;
	}
	case 6:
	{
	CrHBlock(x,y+2,5);
    2ae6:	6e 5f       	subi	r22, 0xFE	; 254
    2ae8:	7f 4f       	sbci	r23, 0xFF	; 255
    2aea:	45 e0       	ldi	r20, 0x05	; 5
    2aec:	50 e0       	ldi	r21, 0x00	; 0
    2aee:	0e 94 52 14 	call	0x28a4	; 0x28a4 <CrHBlock>
	CrVBlock(x,y,3);
    2af2:	c7 01       	movw	r24, r14
    2af4:	be 01       	movw	r22, r28
    2af6:	43 e0       	ldi	r20, 0x03	; 3
    2af8:	50 e0       	ldi	r21, 0x00	; 0
    2afa:	0e 94 34 14 	call	0x2868	; 0x2868 <CrVBlock>
	CrVBlock(x+4,y,3);
    2afe:	c7 01       	movw	r24, r14
    2b00:	04 96       	adiw	r24, 0x04	; 4
    2b02:	be 01       	movw	r22, r28
    2b04:	43 e0       	ldi	r20, 0x03	; 3
    2b06:	50 e0       	ldi	r21, 0x00	; 0
    2b08:	0e 94 34 14 	call	0x2868	; 0x2868 <CrVBlock>
	CrHBlock(x+2,y,3);
    2b0c:	87 01       	movw	r16, r14
    2b0e:	0e 5f       	subi	r16, 0xFE	; 254
    2b10:	1f 4f       	sbci	r17, 0xFF	; 255
    2b12:	c8 01       	movw	r24, r16
    2b14:	be 01       	movw	r22, r28
    2b16:	43 e0       	ldi	r20, 0x03	; 3
    2b18:	50 e0       	ldi	r21, 0x00	; 0
    2b1a:	0e 94 52 14 	call	0x28a4	; 0x28a4 <CrHBlock>
	CrVBlock(x+2,y,3);
    2b1e:	c8 01       	movw	r24, r16
    2b20:	be 01       	movw	r22, r28
    2b22:	43 e0       	ldi	r20, 0x03	; 3
    2b24:	50 e0       	ldi	r21, 0x00	; 0
    2b26:	0e 94 34 14 	call	0x2868	; 0x2868 <CrVBlock>
    2b2a:	55 c0       	rjmp	.+170    	; 0x2bd6 <print_num+0x282>
	break;
	}
	case 7:
	{
	CrHBlock(x,y,5);
    2b2c:	45 e0       	ldi	r20, 0x05	; 5
    2b2e:	50 e0       	ldi	r21, 0x00	; 0
    2b30:	0e 94 52 14 	call	0x28a4	; 0x28a4 <CrHBlock>
	CrVBlock(x,y,3);
    2b34:	c7 01       	movw	r24, r14
    2b36:	be 01       	movw	r22, r28
    2b38:	43 e0       	ldi	r20, 0x03	; 3
    2b3a:	50 e0       	ldi	r21, 0x00	; 0
    2b3c:	0e 94 34 14 	call	0x2868	; 0x2868 <CrVBlock>
	CrHBlock(x,y+2,2);
    2b40:	22 96       	adiw	r28, 0x02	; 2
    2b42:	c7 01       	movw	r24, r14
    2b44:	be 01       	movw	r22, r28
    2b46:	42 e0       	ldi	r20, 0x02	; 2
    2b48:	50 e0       	ldi	r21, 0x00	; 0
    2b4a:	43 c0       	rjmp	.+134    	; 0x2bd2 <print_num+0x27e>
	break;
	}
	case 8:
	{
	CrHBlock(x,y,5);
    2b4c:	45 e0       	ldi	r20, 0x05	; 5
    2b4e:	50 e0       	ldi	r21, 0x00	; 0
    2b50:	0e 94 52 14 	call	0x28a4	; 0x28a4 <CrHBlock>
	CrVBlock(x,y,3);
    2b54:	c7 01       	movw	r24, r14
    2b56:	be 01       	movw	r22, r28
    2b58:	43 e0       	ldi	r20, 0x03	; 3
    2b5a:	50 e0       	ldi	r21, 0x00	; 0
    2b5c:	0e 94 34 14 	call	0x2868	; 0x2868 <CrVBlock>
	CrVBlock(x+2,y,3);
    2b60:	c7 01       	movw	r24, r14
    2b62:	02 96       	adiw	r24, 0x02	; 2
    2b64:	be 01       	movw	r22, r28
    2b66:	43 e0       	ldi	r20, 0x03	; 3
    2b68:	50 e0       	ldi	r21, 0x00	; 0
    2b6a:	0e 94 34 14 	call	0x2868	; 0x2868 <CrVBlock>
	CrVBlock(x+4,y,3);
    2b6e:	c7 01       	movw	r24, r14
    2b70:	04 96       	adiw	r24, 0x04	; 4
    2b72:	be 01       	movw	r22, r28
    2b74:	43 e0       	ldi	r20, 0x03	; 3
    2b76:	50 e0       	ldi	r21, 0x00	; 0
    2b78:	0e 94 34 14 	call	0x2868	; 0x2868 <CrVBlock>
	CrHBlock(x,y+2,5);
    2b7c:	22 96       	adiw	r28, 0x02	; 2
    2b7e:	c7 01       	movw	r24, r14
    2b80:	be 01       	movw	r22, r28
    2b82:	45 e0       	ldi	r20, 0x05	; 5
    2b84:	50 e0       	ldi	r21, 0x00	; 0
    2b86:	25 c0       	rjmp	.+74     	; 0x2bd2 <print_num+0x27e>
	break;
	}
	case 9:
	{
	CrHBlock(x,y,5);
    2b88:	45 e0       	ldi	r20, 0x05	; 5
    2b8a:	50 e0       	ldi	r21, 0x00	; 0
    2b8c:	0e 94 52 14 	call	0x28a4	; 0x28a4 <CrHBlock>
	CrVBlock(x+2,y,3);
    2b90:	87 01       	movw	r16, r14
    2b92:	0e 5f       	subi	r16, 0xFE	; 254
    2b94:	1f 4f       	sbci	r17, 0xFF	; 255
    2b96:	c8 01       	movw	r24, r16
    2b98:	be 01       	movw	r22, r28
    2b9a:	43 e0       	ldi	r20, 0x03	; 3
    2b9c:	50 e0       	ldi	r21, 0x00	; 0
    2b9e:	0e 94 34 14 	call	0x2868	; 0x2868 <CrVBlock>
	CrVBlock(x,y,3);
    2ba2:	c7 01       	movw	r24, r14
    2ba4:	be 01       	movw	r22, r28
    2ba6:	43 e0       	ldi	r20, 0x03	; 3
    2ba8:	50 e0       	ldi	r21, 0x00	; 0
    2baa:	0e 94 34 14 	call	0x2868	; 0x2868 <CrVBlock>
	CrVBlock(x+2,y,3);
    2bae:	c8 01       	movw	r24, r16
    2bb0:	be 01       	movw	r22, r28
    2bb2:	43 e0       	ldi	r20, 0x03	; 3
    2bb4:	50 e0       	ldi	r21, 0x00	; 0
    2bb6:	0e 94 34 14 	call	0x2868	; 0x2868 <CrVBlock>
	CrVBlock(x+4,y,3);
    2bba:	c7 01       	movw	r24, r14
    2bbc:	04 96       	adiw	r24, 0x04	; 4
    2bbe:	be 01       	movw	r22, r28
    2bc0:	43 e0       	ldi	r20, 0x03	; 3
    2bc2:	50 e0       	ldi	r21, 0x00	; 0
    2bc4:	0e 94 34 14 	call	0x2868	; 0x2868 <CrVBlock>
	CrHBlock(x,y+2,3);
    2bc8:	22 96       	adiw	r28, 0x02	; 2
    2bca:	c7 01       	movw	r24, r14
    2bcc:	be 01       	movw	r22, r28
    2bce:	43 e0       	ldi	r20, 0x03	; 3
    2bd0:	50 e0       	ldi	r21, 0x00	; 0
    2bd2:	0e 94 52 14 	call	0x28a4	; 0x28a4 <CrHBlock>
	


}

}
    2bd6:	df 91       	pop	r29
    2bd8:	cf 91       	pop	r28
    2bda:	1f 91       	pop	r17
    2bdc:	0f 91       	pop	r16
    2bde:	ff 90       	pop	r15
    2be0:	ef 90       	pop	r14
    2be2:	08 95       	ret

00002be4 <accelerate>:
}
*/
void accelerate()
{

	x=read_adc(0);
    2be4:	80 e0       	ldi	r24, 0x00	; 0
    2be6:	0e 94 b5 10 	call	0x216a	; 0x216a <read_adc>
    2bea:	90 93 8f 00 	sts	0x008F, r25
    2bee:	80 93 8e 00 	sts	0x008E, r24
	y=read_adc(1);
    2bf2:	81 e0       	ldi	r24, 0x01	; 1
    2bf4:	0e 94 b5 10 	call	0x216a	; 0x216a <read_adc>
    2bf8:	9c 01       	movw	r18, r24
    2bfa:	90 93 c3 00 	sts	0x00C3, r25
    2bfe:	80 93 c2 00 	sts	0x00C2, r24
	if(y>=335 && y<350)
    2c02:	8f 54       	subi	r24, 0x4F	; 79
    2c04:	91 40       	sbci	r25, 0x01	; 1
    2c06:	0f 97       	sbiw	r24, 0x0f	; 15
    2c08:	28 f4       	brcc	.+10     	; 0x2c14 <accelerate+0x30>
     {
     k1=0;
    2c0a:	10 92 db 00 	sts	0x00DB, r1
    2c0e:	10 92 da 00 	sts	0x00DA, r1
    2c12:	40 c0       	rjmp	.+128    	; 0x2c94 <accelerate+0xb0>
       }
     else if(y>=350 && y<365)
    2c14:	c9 01       	movw	r24, r18
    2c16:	8e 55       	subi	r24, 0x5E	; 94
    2c18:	91 40       	sbci	r25, 0x01	; 1
    2c1a:	0f 97       	sbiw	r24, 0x0f	; 15
    2c1c:	18 f4       	brcc	.+6      	; 0x2c24 <accelerate+0x40>
    {
    k1=1;
    2c1e:	81 e0       	ldi	r24, 0x01	; 1
    2c20:	90 e0       	ldi	r25, 0x00	; 0
    2c22:	34 c0       	rjmp	.+104    	; 0x2c8c <accelerate+0xa8>
     }
    else if(y>=365 && y<380)
    2c24:	c9 01       	movw	r24, r18
    2c26:	8d 56       	subi	r24, 0x6D	; 109
    2c28:	91 40       	sbci	r25, 0x01	; 1
    2c2a:	0f 97       	sbiw	r24, 0x0f	; 15
    2c2c:	18 f4       	brcc	.+6      	; 0x2c34 <accelerate+0x50>
   {
   k1=2;
    2c2e:	82 e0       	ldi	r24, 0x02	; 2
    2c30:	90 e0       	ldi	r25, 0x00	; 0
    2c32:	2c c0       	rjmp	.+88     	; 0x2c8c <accelerate+0xa8>
   }
   else if(y>=380 && y<405)
    2c34:	c9 01       	movw	r24, r18
    2c36:	8c 57       	subi	r24, 0x7C	; 124
    2c38:	91 40       	sbci	r25, 0x01	; 1
    2c3a:	49 97       	sbiw	r24, 0x19	; 25
    2c3c:	18 f4       	brcc	.+6      	; 0x2c44 <accelerate+0x60>
   {
   k1=3;
    2c3e:	83 e0       	ldi	r24, 0x03	; 3
    2c40:	90 e0       	ldi	r25, 0x00	; 0
    2c42:	24 c0       	rjmp	.+72     	; 0x2c8c <accelerate+0xa8>
  }
   else if(y>=405 )
    2c44:	81 e0       	ldi	r24, 0x01	; 1
    2c46:	25 39       	cpi	r18, 0x95	; 149
    2c48:	38 07       	cpc	r19, r24
    2c4a:	1c f0       	brlt	.+6      	; 0x2c52 <accelerate+0x6e>
  {
  k1=4;
    2c4c:	84 e0       	ldi	r24, 0x04	; 4
    2c4e:	90 e0       	ldi	r25, 0x00	; 0
    2c50:	1d c0       	rjmp	.+58     	; 0x2c8c <accelerate+0xa8>
   }
   else if(y>=320 && y<335)
    2c52:	c9 01       	movw	r24, r18
    2c54:	80 54       	subi	r24, 0x40	; 64
    2c56:	91 40       	sbci	r25, 0x01	; 1
    2c58:	0f 97       	sbiw	r24, 0x0f	; 15
    2c5a:	18 f4       	brcc	.+6      	; 0x2c62 <accelerate+0x7e>
   {
  k1=-1;
    2c5c:	8f ef       	ldi	r24, 0xFF	; 255
    2c5e:	9f ef       	ldi	r25, 0xFF	; 255
    2c60:	15 c0       	rjmp	.+42     	; 0x2c8c <accelerate+0xa8>
   }

  else if(y>=305 && y<320)
    2c62:	c9 01       	movw	r24, r18
    2c64:	81 53       	subi	r24, 0x31	; 49
    2c66:	91 40       	sbci	r25, 0x01	; 1
    2c68:	0f 97       	sbiw	r24, 0x0f	; 15
    2c6a:	18 f4       	brcc	.+6      	; 0x2c72 <accelerate+0x8e>
   {
  k1=-2;
    2c6c:	8e ef       	ldi	r24, 0xFE	; 254
    2c6e:	9f ef       	ldi	r25, 0xFF	; 255
    2c70:	0d c0       	rjmp	.+26     	; 0x2c8c <accelerate+0xa8>
   }
  else if(y>=295 && y<=305)
    2c72:	c9 01       	movw	r24, r18
    2c74:	87 52       	subi	r24, 0x27	; 39
    2c76:	91 40       	sbci	r25, 0x01	; 1
    2c78:	0b 97       	sbiw	r24, 0x0b	; 11
    2c7a:	18 f4       	brcc	.+6      	; 0x2c82 <accelerate+0x9e>
  {
  k1=-3;
    2c7c:	8d ef       	ldi	r24, 0xFD	; 253
    2c7e:	9f ef       	ldi	r25, 0xFF	; 255
    2c80:	05 c0       	rjmp	.+10     	; 0x2c8c <accelerate+0xa8>
  }
  else if(y<=295)
    2c82:	28 52       	subi	r18, 0x28	; 40
    2c84:	31 40       	sbci	r19, 0x01	; 1
    2c86:	34 f4       	brge	.+12     	; 0x2c94 <accelerate+0xb0>
  {
  k1=-4;
    2c88:	8c ef       	ldi	r24, 0xFC	; 252
    2c8a:	9f ef       	ldi	r25, 0xFF	; 255
    2c8c:	90 93 db 00 	sts	0x00DB, r25
    2c90:	80 93 da 00 	sts	0x00DA, r24
  }


  if(x>=335 && x<350)
    2c94:	20 91 8e 00 	lds	r18, 0x008E
    2c98:	30 91 8f 00 	lds	r19, 0x008F
    2c9c:	c9 01       	movw	r24, r18
    2c9e:	8f 54       	subi	r24, 0x4F	; 79
    2ca0:	91 40       	sbci	r25, 0x01	; 1
    2ca2:	0f 97       	sbiw	r24, 0x0f	; 15
    2ca4:	28 f4       	brcc	.+10     	; 0x2cb0 <accelerate+0xcc>
  {
  k2=0;
    2ca6:	10 92 b9 00 	sts	0x00B9, r1
    2caa:	10 92 b8 00 	sts	0x00B8, r1
    2cae:	08 95       	ret
  }
  else if(x>=350 && x<365)
    2cb0:	c9 01       	movw	r24, r18
    2cb2:	8e 55       	subi	r24, 0x5E	; 94
    2cb4:	91 40       	sbci	r25, 0x01	; 1
    2cb6:	0f 97       	sbiw	r24, 0x0f	; 15
    2cb8:	18 f4       	brcc	.+6      	; 0x2cc0 <accelerate+0xdc>
  {
  k2=1;
    2cba:	81 e0       	ldi	r24, 0x01	; 1
    2cbc:	90 e0       	ldi	r25, 0x00	; 0
    2cbe:	2e c0       	rjmp	.+92     	; 0x2d1c <accelerate+0x138>
  }
  else if(x>=365 && x<380)
    2cc0:	c9 01       	movw	r24, r18
    2cc2:	8d 56       	subi	r24, 0x6D	; 109
    2cc4:	91 40       	sbci	r25, 0x01	; 1
    2cc6:	0f 97       	sbiw	r24, 0x0f	; 15
    2cc8:	18 f4       	brcc	.+6      	; 0x2cd0 <accelerate+0xec>
  {
  k2=2;
    2cca:	82 e0       	ldi	r24, 0x02	; 2
    2ccc:	90 e0       	ldi	r25, 0x00	; 0
    2cce:	26 c0       	rjmp	.+76     	; 0x2d1c <accelerate+0x138>
  }
  else if(x>=380 && x<405)
    2cd0:	c9 01       	movw	r24, r18
    2cd2:	8c 57       	subi	r24, 0x7C	; 124
    2cd4:	91 40       	sbci	r25, 0x01	; 1
    2cd6:	49 97       	sbiw	r24, 0x19	; 25
    2cd8:	18 f4       	brcc	.+6      	; 0x2ce0 <accelerate+0xfc>
 {
  k2=3;
    2cda:	83 e0       	ldi	r24, 0x03	; 3
    2cdc:	90 e0       	ldi	r25, 0x00	; 0
    2cde:	1e c0       	rjmp	.+60     	; 0x2d1c <accelerate+0x138>
  }
  else if(x>=405 )
    2ce0:	81 e0       	ldi	r24, 0x01	; 1
    2ce2:	25 39       	cpi	r18, 0x95	; 149
    2ce4:	38 07       	cpc	r19, r24
    2ce6:	1c f0       	brlt	.+6      	; 0x2cee <accelerate+0x10a>
 {
  k2=4;
    2ce8:	84 e0       	ldi	r24, 0x04	; 4
    2cea:	90 e0       	ldi	r25, 0x00	; 0
    2cec:	17 c0       	rjmp	.+46     	; 0x2d1c <accelerate+0x138>
  }
  else if(x>=320 && x<335)
    2cee:	c9 01       	movw	r24, r18
    2cf0:	80 54       	subi	r24, 0x40	; 64
    2cf2:	91 40       	sbci	r25, 0x01	; 1
    2cf4:	0f 97       	sbiw	r24, 0x0f	; 15
    2cf6:	18 f4       	brcc	.+6      	; 0x2cfe <accelerate+0x11a>
  {
  k2=-1;
    2cf8:	8f ef       	ldi	r24, 0xFF	; 255
    2cfa:	9f ef       	ldi	r25, 0xFF	; 255
    2cfc:	0f c0       	rjmp	.+30     	; 0x2d1c <accelerate+0x138>
  }

  else if(x>=305 && x<320)
    2cfe:	c9 01       	movw	r24, r18
    2d00:	81 53       	subi	r24, 0x31	; 49
    2d02:	91 40       	sbci	r25, 0x01	; 1
    2d04:	0f 97       	sbiw	r24, 0x0f	; 15
    2d06:	18 f4       	brcc	.+6      	; 0x2d0e <accelerate+0x12a>
  {
  k2=-2;
    2d08:	8e ef       	ldi	r24, 0xFE	; 254
    2d0a:	9f ef       	ldi	r25, 0xFF	; 255
    2d0c:	07 c0       	rjmp	.+14     	; 0x2d1c <accelerate+0x138>
  }
  else if(x>=295 && x<=305)
    2d0e:	c9 01       	movw	r24, r18
    2d10:	87 52       	subi	r24, 0x27	; 39
    2d12:	91 40       	sbci	r25, 0x01	; 1
    2d14:	0b 97       	sbiw	r24, 0x0b	; 11
    2d16:	38 f4       	brcc	.+14     	; 0x2d26 <accelerate+0x142>
  {
  k2=-3;
    2d18:	8d ef       	ldi	r24, 0xFD	; 253
    2d1a:	9f ef       	ldi	r25, 0xFF	; 255
    2d1c:	90 93 b9 00 	sts	0x00B9, r25
    2d20:	80 93 b8 00 	sts	0x00B8, r24
    2d24:	08 95       	ret
  }
  else if(x<=295)
    2d26:	28 52       	subi	r18, 0x28	; 40
    2d28:	31 40       	sbci	r19, 0x01	; 1
    2d2a:	34 f4       	brge	.+12     	; 0x2d38 <accelerate+0x154>
  {
  k2=-4;
    2d2c:	8c ef       	ldi	r24, 0xFC	; 252
    2d2e:	9f ef       	ldi	r25, 0xFF	; 255
    2d30:	90 93 b9 00 	sts	0x00B9, r25
    2d34:	80 93 b8 00 	sts	0x00B8, r24
    2d38:	08 95       	ret

00002d3a <switches>:
}
}

void switches()
{
if(bit_is_clear(PINB,5))
    2d3a:	b5 99       	sbic	0x16, 5	; 22
    2d3c:	03 c0       	rjmp	.+6      	; 0x2d44 <switches+0xa>
{
sw=1;
    2d3e:	81 e0       	ldi	r24, 0x01	; 1
    2d40:	90 e0       	ldi	r25, 0x00	; 0
    2d42:	0e c0       	rjmp	.+28     	; 0x2d60 <switches+0x26>
}
else if(bit_is_clear(PINB,6))
    2d44:	b6 99       	sbic	0x16, 6	; 22
    2d46:	03 c0       	rjmp	.+6      	; 0x2d4e <switches+0x14>
{
sw=2;
    2d48:	82 e0       	ldi	r24, 0x02	; 2
    2d4a:	90 e0       	ldi	r25, 0x00	; 0
    2d4c:	09 c0       	rjmp	.+18     	; 0x2d60 <switches+0x26>
}
else if(bit_is_clear(PINB,7))
    2d4e:	b7 99       	sbic	0x16, 7	; 22
    2d50:	03 c0       	rjmp	.+6      	; 0x2d58 <switches+0x1e>
{
sw=3;
    2d52:	83 e0       	ldi	r24, 0x03	; 3
    2d54:	90 e0       	ldi	r25, 0x00	; 0
    2d56:	04 c0       	rjmp	.+8      	; 0x2d60 <switches+0x26>
}
else if(bit_is_clear(PINB,4))
    2d58:	b4 99       	sbic	0x16, 4	; 22
    2d5a:	07 c0       	rjmp	.+14     	; 0x2d6a <switches+0x30>
{
sw=4;
    2d5c:	84 e0       	ldi	r24, 0x04	; 4
    2d5e:	90 e0       	ldi	r25, 0x00	; 0
    2d60:	90 93 7c 00 	sts	0x007C, r25
    2d64:	80 93 7b 00 	sts	0x007B, r24
    2d68:	08 95       	ret
}
else if(bit_is_clear(PINB,2))
    2d6a:	b2 99       	sbic	0x16, 2	; 22
    2d6c:	06 c0       	rjmp	.+12     	; 0x2d7a <switches+0x40>
{
sw=5;
    2d6e:	85 e0       	ldi	r24, 0x05	; 5
    2d70:	90 e0       	ldi	r25, 0x00	; 0
    2d72:	90 93 7c 00 	sts	0x007C, r25
    2d76:	80 93 7b 00 	sts	0x007B, r24
    2d7a:	08 95       	ret

00002d7c <check_switch>:
 
}

void check_switch()
{
switches();// check the switches 
    2d7c:	0e 94 9d 16 	call	0x2d3a	; 0x2d3a <switches>
// if switch 1 is pressed
if (sw==1)
    2d80:	80 91 7b 00 	lds	r24, 0x007B
    2d84:	90 91 7c 00 	lds	r25, 0x007C
    2d88:	81 30       	cpi	r24, 0x01	; 1
    2d8a:	91 05       	cpc	r25, r1
    2d8c:	29 f4       	brne	.+10     	; 0x2d98 <check_switch+0x1c>
{
level=0;
    2d8e:	10 92 7a 00 	sts	0x007A, r1
    2d92:	10 92 79 00 	sts	0x0079, r1
    2d96:	10 c0       	rjmp	.+32     	; 0x2db8 <check_switch+0x3c>
sw=0;

}
else if(sw==2)
    2d98:	82 30       	cpi	r24, 0x02	; 2
    2d9a:	91 05       	cpc	r25, r1
    2d9c:	51 f4       	brne	.+20     	; 0x2db2 <check_switch+0x36>
    2d9e:	02 c0       	rjmp	.+4      	; 0x2da4 <check_switch+0x28>
{
while(sw==2)
{
switches();
    2da0:	0e 94 9d 16 	call	0x2d3a	; 0x2d3a <switches>
sw=0;

}
else if(sw==2)
{
while(sw==2)
    2da4:	80 91 7b 00 	lds	r24, 0x007B
    2da8:	90 91 7c 00 	lds	r25, 0x007C
    2dac:	02 97       	sbiw	r24, 0x02	; 2
    2dae:	c1 f3       	breq	.-16     	; 0x2da0 <check_switch+0x24>
    2db0:	08 95       	ret
{
switches();
}
}
else if(sw==3)
    2db2:	83 30       	cpi	r24, 0x03	; 3
    2db4:	91 05       	cpc	r25, r1
    2db6:	29 f4       	brne	.+10     	; 0x2dc2 <check_switch+0x46>
{
sw=0;
    2db8:	10 92 7c 00 	sts	0x007C, r1
    2dbc:	10 92 7b 00 	sts	0x007B, r1
    2dc0:	08 95       	ret
}
else if(sw==4)
    2dc2:	04 97       	sbiw	r24, 0x04	; 4
    2dc4:	91 f4       	brne	.+36     	; 0x2dea <check_switch+0x6e>
{prev_level=level;
    2dc6:	80 91 79 00 	lds	r24, 0x0079
    2dca:	90 91 7a 00 	lds	r25, 0x007A
    2dce:	90 93 dd 00 	sts	0x00DD, r25
    2dd2:	80 93 dc 00 	sts	0x00DC, r24
level=-1;
    2dd6:	8f ef       	ldi	r24, 0xFF	; 255
    2dd8:	9f ef       	ldi	r25, 0xFF	; 255
    2dda:	90 93 7a 00 	sts	0x007A, r25
    2dde:	80 93 79 00 	sts	0x0079, r24
sw=0;
    2de2:	10 92 7c 00 	sts	0x007C, r1
    2de6:	10 92 7b 00 	sts	0x007B, r1
    2dea:	08 95       	ret

00002dec <BlockClear>:
}



void BlockClear(int x, int y)
{
    2dec:	ef 92       	push	r14
    2dee:	ff 92       	push	r15
    2df0:	0f 93       	push	r16
    2df2:	1f 93       	push	r17
    2df4:	7c 01       	movw	r14, r24
    2df6:	8b 01       	movw	r16, r22
	ErHBlock(x,y,5);
    2df8:	45 e0       	ldi	r20, 0x05	; 5
    2dfa:	50 e0       	ldi	r21, 0x00	; 0
    2dfc:	0e 94 8d 14 	call	0x291a	; 0x291a <ErHBlock>
	ErHBlock(x,y-1,5);
    2e00:	01 50       	subi	r16, 0x01	; 1
    2e02:	10 40       	sbci	r17, 0x00	; 0
    2e04:	c7 01       	movw	r24, r14
    2e06:	b8 01       	movw	r22, r16
    2e08:	45 e0       	ldi	r20, 0x05	; 5
    2e0a:	50 e0       	ldi	r21, 0x00	; 0
    2e0c:	0e 94 8d 14 	call	0x291a	; 0x291a <ErHBlock>
	ErHBlock(x,y-2,5);
    2e10:	01 50       	subi	r16, 0x01	; 1
    2e12:	10 40       	sbci	r17, 0x00	; 0
    2e14:	c7 01       	movw	r24, r14
    2e16:	b8 01       	movw	r22, r16
    2e18:	45 e0       	ldi	r20, 0x05	; 5
    2e1a:	50 e0       	ldi	r21, 0x00	; 0
    2e1c:	0e 94 8d 14 	call	0x291a	; 0x291a <ErHBlock>
	ErHBlock(x,y+1,5);
    2e20:	0d 5f       	subi	r16, 0xFD	; 253
    2e22:	1f 4f       	sbci	r17, 0xFF	; 255
    2e24:	c7 01       	movw	r24, r14
    2e26:	b8 01       	movw	r22, r16
    2e28:	45 e0       	ldi	r20, 0x05	; 5
    2e2a:	50 e0       	ldi	r21, 0x00	; 0
    2e2c:	0e 94 8d 14 	call	0x291a	; 0x291a <ErHBlock>
	ErHBlock(x,y+2,5);
    2e30:	0f 5f       	subi	r16, 0xFF	; 255
    2e32:	1f 4f       	sbci	r17, 0xFF	; 255
    2e34:	c7 01       	movw	r24, r14
    2e36:	b8 01       	movw	r22, r16
    2e38:	45 e0       	ldi	r20, 0x05	; 5
    2e3a:	50 e0       	ldi	r21, 0x00	; 0
    2e3c:	0e 94 8d 14 	call	0x291a	; 0x291a <ErHBlock>
	ErHBlock(x,y+3,5);
    2e40:	0f 5f       	subi	r16, 0xFF	; 255
    2e42:	1f 4f       	sbci	r17, 0xFF	; 255
    2e44:	c7 01       	movw	r24, r14
    2e46:	b8 01       	movw	r22, r16
    2e48:	45 e0       	ldi	r20, 0x05	; 5
    2e4a:	50 e0       	ldi	r21, 0x00	; 0
    2e4c:	0e 94 8d 14 	call	0x291a	; 0x291a <ErHBlock>

}
    2e50:	1f 91       	pop	r17
    2e52:	0f 91       	pop	r16
    2e54:	ff 90       	pop	r15
    2e56:	ef 90       	pop	r14
    2e58:	08 95       	ret

00002e5a <menu>:


}
// function to print menu 
void menu()
{int jeetu=0;
    2e5a:	cf 92       	push	r12
    2e5c:	df 92       	push	r13
    2e5e:	ef 92       	push	r14
    2e60:	ff 92       	push	r15
    2e62:	0f 93       	push	r16
    2e64:	cf 93       	push	r28
    2e66:	df 93       	push	r29
    2e68:	c0 e0       	ldi	r28, 0x00	; 0
    2e6a:	d0 e0       	ldi	r29, 0x00	; 0
    milliseconds can be achieved.
 */
void
_delay_loop_2(uint16_t __count)
{
	__asm__ volatile (
    2e6c:	99 e1       	ldi	r25, 0x19	; 25
    2e6e:	c9 2e       	mov	r12, r25
    2e70:	d1 2c       	mov	r13, r1
	ks0108GotoXY(45,40);
	ks0108Puts(c);

	_delay_ms(800);
	ks0108ClearScreen();
	sw=7;
    2e72:	87 e0       	ldi	r24, 0x07	; 7
    2e74:	e8 2e       	mov	r14, r24
    2e76:	f1 2c       	mov	r15, r1
    2e78:	b4 c0       	rjmp	.+360    	; 0x2fe2 <menu+0x188>
// function to print menu 
void menu()
{int jeetu=0;
   while(sw!=1)
   
   { jeetu++;
    2e7a:	21 96       	adiw	r28, 0x01	; 1
   switches();
    2e7c:	0e 94 9d 16 	call	0x2d3a	; 0x2d3a <switches>
     
	 if(jeetu==1)
    2e80:	c1 30       	cpi	r28, 0x01	; 1
    2e82:	d1 05       	cpc	r29, r1
    2e84:	31 f5       	brne	.+76     	; 0x2ed2 <menu+0x78>
	 {
	
	ks0108DrawRect(1,1,126,62,BLACK);
    2e86:	81 e0       	ldi	r24, 0x01	; 1
    2e88:	61 e0       	ldi	r22, 0x01	; 1
    2e8a:	4e e7       	ldi	r20, 0x7E	; 126
    2e8c:	2e e3       	ldi	r18, 0x3E	; 62
    2e8e:	0f ef       	ldi	r16, 0xFF	; 255
    2e90:	0e 94 f6 0e 	call	0x1dec	; 0x1dec <ks0108DrawRect>
	ks0108DrawRect(2,2,124,60,BLACK);
    2e94:	82 e0       	ldi	r24, 0x02	; 2
    2e96:	62 e0       	ldi	r22, 0x02	; 2
    2e98:	4c e7       	ldi	r20, 0x7C	; 124
    2e9a:	2c e3       	ldi	r18, 0x3C	; 60
    2e9c:	0e 94 f6 0e 	call	0x1dec	; 0x1dec <ks0108DrawRect>
   
   ks0108GotoXY(38,10);
    2ea0:	86 e2       	ldi	r24, 0x26	; 38
    2ea2:	6a e0       	ldi	r22, 0x0A	; 10
    2ea4:	0e 94 44 0a 	call	0x1488	; 0x1488 <ks0108GotoXY>
	ks0108Puts_P(PSTR("Press"));
    2ea8:	8d e7       	ldi	r24, 0x7D	; 125
    2eaa:	90 e0       	ldi	r25, 0x00	; 0
    2eac:	0e 94 38 0c 	call	0x1870	; 0x1870 <ks0108Puts_P>
	ks0108GotoXY(18,25);
    2eb0:	82 e1       	ldi	r24, 0x12	; 18
    2eb2:	69 e1       	ldi	r22, 0x19	; 25
    2eb4:	0e 94 44 0a 	call	0x1488	; 0x1488 <ks0108GotoXY>
	ks0108Puts_P(PSTR("1. Restart"));
    2eb8:	82 e7       	ldi	r24, 0x72	; 114
    2eba:	90 e0       	ldi	r25, 0x00	; 0
    2ebc:	0e 94 38 0c 	call	0x1870	; 0x1870 <ks0108Puts_P>
	ks0108GotoXY(15,40);
    2ec0:	8f e0       	ldi	r24, 0x0F	; 15
    2ec2:	68 e2       	ldi	r22, 0x28	; 40
    2ec4:	0e 94 44 0a 	call	0x1488	; 0x1488 <ks0108GotoXY>
	ks0108Puts_P(PSTR("5. High Scores"));
    2ec8:	83 e6       	ldi	r24, 0x63	; 99
    2eca:	90 e0       	ldi	r25, 0x00	; 0
    2ecc:	0e 94 38 0c 	call	0x1870	; 0x1870 <ks0108Puts_P>
    2ed0:	05 c0       	rjmp	.+10     	; 0x2edc <menu+0x82>
	}
	if(jeetu==4)
    2ed2:	c4 30       	cpi	r28, 0x04	; 4
    2ed4:	d1 05       	cpc	r29, r1
    2ed6:	11 f4       	brne	.+4      	; 0x2edc <menu+0x82>
    2ed8:	c2 e0       	ldi	r28, 0x02	; 2
    2eda:	d0 e0       	ldi	r29, 0x00	; 0
	{
	jeetu=2;
	}

	if(sw==5)
    2edc:	80 91 7b 00 	lds	r24, 0x007B
    2ee0:	90 91 7c 00 	lds	r25, 0x007C
    2ee4:	05 97       	sbiw	r24, 0x05	; 5
    2ee6:	09 f0       	breq	.+2      	; 0x2eea <menu+0x90>
    2ee8:	76 c0       	rjmp	.+236    	; 0x2fd6 <menu+0x17c>
	{ks0108ClearScreen();
    2eea:	80 e0       	ldi	r24, 0x00	; 0
    2eec:	60 e0       	ldi	r22, 0x00	; 0
    2eee:	4f e7       	ldi	r20, 0x7F	; 127
    2ef0:	2f e3       	ldi	r18, 0x3F	; 63
    2ef2:	00 e0       	ldi	r16, 0x00	; 0
    2ef4:	0e 94 5d 0d 	call	0x1aba	; 0x1aba <ks0108FillRect>
	ks0108DrawRect(1,1,126,62,BLACK);
    2ef8:	81 e0       	ldi	r24, 0x01	; 1
    2efa:	61 e0       	ldi	r22, 0x01	; 1
    2efc:	4e e7       	ldi	r20, 0x7E	; 126
    2efe:	2e e3       	ldi	r18, 0x3E	; 62
    2f00:	0f ef       	ldi	r16, 0xFF	; 255
    2f02:	0e 94 f6 0e 	call	0x1dec	; 0x1dec <ks0108DrawRect>
	ks0108DrawRect(2,2,124,60,BLACK);
    2f06:	82 e0       	ldi	r24, 0x02	; 2
    2f08:	62 e0       	ldi	r22, 0x02	; 2
    2f0a:	4c e7       	ldi	r20, 0x7C	; 124
    2f0c:	2c e3       	ldi	r18, 0x3C	; 60
    2f0e:	0e 94 f6 0e 	call	0x1dec	; 0x1dec <ks0108DrawRect>
     
	 ks0108GotoXY(15,10);
    2f12:	8f e0       	ldi	r24, 0x0F	; 15
    2f14:	6a e0       	ldi	r22, 0x0A	; 10
    2f16:	0e 94 44 0a 	call	0x1488	; 0x1488 <ks0108GotoXY>
	ks0108Puts_P(PSTR("HS1-"));
    2f1a:	8e e5       	ldi	r24, 0x5E	; 94
    2f1c:	90 e0       	ldi	r25, 0x00	; 0
    2f1e:	0e 94 38 0c 	call	0x1870	; 0x1870 <ks0108Puts_P>
	itoa(high_score1,a,10);
    2f22:	80 91 63 00 	lds	r24, 0x0063
    2f26:	90 91 64 00 	lds	r25, 0x0064
    2f2a:	60 ed       	ldi	r22, 0xD0	; 208
    2f2c:	70 e0       	ldi	r23, 0x00	; 0
    2f2e:	4a e0       	ldi	r20, 0x0A	; 10
    2f30:	50 e0       	ldi	r21, 0x00	; 0
    2f32:	0e 94 ce 2b 	call	0x579c	; 0x579c <itoa>
	ks0108GotoXY(44,10);
    2f36:	8c e2       	ldi	r24, 0x2C	; 44
    2f38:	6a e0       	ldi	r22, 0x0A	; 10
    2f3a:	0e 94 44 0a 	call	0x1488	; 0x1488 <ks0108GotoXY>
	ks0108Puts(a);
    2f3e:	80 ed       	ldi	r24, 0xD0	; 208
    2f40:	90 e0       	ldi	r25, 0x00	; 0
    2f42:	0e 94 60 0c 	call	0x18c0	; 0x18c0 <ks0108Puts>
	
	ks0108GotoXY(15,25);
    2f46:	8f e0       	ldi	r24, 0x0F	; 15
    2f48:	69 e1       	ldi	r22, 0x19	; 25
    2f4a:	0e 94 44 0a 	call	0x1488	; 0x1488 <ks0108GotoXY>
	ks0108Puts_P(PSTR("HS2-"));
    2f4e:	89 e5       	ldi	r24, 0x59	; 89
    2f50:	90 e0       	ldi	r25, 0x00	; 0
    2f52:	0e 94 38 0c 	call	0x1870	; 0x1870 <ks0108Puts_P>
    itoa(high_score2,b,10);
    2f56:	80 91 65 00 	lds	r24, 0x0065
    2f5a:	90 91 66 00 	lds	r25, 0x0066
    2f5e:	61 e8       	ldi	r22, 0x81	; 129
    2f60:	70 e0       	ldi	r23, 0x00	; 0
    2f62:	4a e0       	ldi	r20, 0x0A	; 10
    2f64:	50 e0       	ldi	r21, 0x00	; 0
    2f66:	0e 94 ce 2b 	call	0x579c	; 0x579c <itoa>
	ks0108GotoXY(45,25);
    2f6a:	8d e2       	ldi	r24, 0x2D	; 45
    2f6c:	69 e1       	ldi	r22, 0x19	; 25
    2f6e:	0e 94 44 0a 	call	0x1488	; 0x1488 <ks0108GotoXY>
	ks0108Puts(b);
    2f72:	81 e8       	ldi	r24, 0x81	; 129
    2f74:	90 e0       	ldi	r25, 0x00	; 0
    2f76:	0e 94 60 0c 	call	0x18c0	; 0x18c0 <ks0108Puts>

	ks0108GotoXY(15,40);
    2f7a:	8f e0       	ldi	r24, 0x0F	; 15
    2f7c:	68 e2       	ldi	r22, 0x28	; 40
    2f7e:	0e 94 44 0a 	call	0x1488	; 0x1488 <ks0108GotoXY>
	ks0108Puts_P(PSTR("HS3-"));
    2f82:	84 e5       	ldi	r24, 0x54	; 84
    2f84:	90 e0       	ldi	r25, 0x00	; 0
    2f86:	0e 94 38 0c 	call	0x1870	; 0x1870 <ks0108Puts_P>
	itoa(high_score3,c,10);
    2f8a:	80 91 6d 00 	lds	r24, 0x006D
    2f8e:	90 91 6e 00 	lds	r25, 0x006E
    2f92:	6c ea       	ldi	r22, 0xAC	; 172
    2f94:	70 e0       	ldi	r23, 0x00	; 0
    2f96:	4a e0       	ldi	r20, 0x0A	; 10
    2f98:	50 e0       	ldi	r21, 0x00	; 0
    2f9a:	0e 94 ce 2b 	call	0x579c	; 0x579c <itoa>
	ks0108GotoXY(45,40);
    2f9e:	8d e2       	ldi	r24, 0x2D	; 45
    2fa0:	68 e2       	ldi	r22, 0x28	; 40
    2fa2:	0e 94 44 0a 	call	0x1488	; 0x1488 <ks0108GotoXY>
	ks0108Puts(c);
    2fa6:	8c ea       	ldi	r24, 0xAC	; 172
    2fa8:	90 e0       	ldi	r25, 0x00	; 0
    2faa:	0e 94 60 0c 	call	0x18c0	; 0x18c0 <ks0108Puts>
    2fae:	80 e4       	ldi	r24, 0x40	; 64
    2fb0:	9f e1       	ldi	r25, 0x1F	; 31
    2fb2:	f6 01       	movw	r30, r12
    2fb4:	31 97       	sbiw	r30, 0x01	; 1
    2fb6:	f1 f7       	brne	.-4      	; 0x2fb4 <menu+0x15a>
		__ticks = (uint16_t) (__ms * 10.0);
		while(__ticks)
		{
			// wait 1/10 ms
			_delay_loop_2(((F_CPU) / 4e3) / 10);
			__ticks --;
    2fb8:	01 97       	sbiw	r24, 0x01	; 1
		__ticks = 1;
	else if (__tmp > 65535)
	{
		//	__ticks = requested delay in 1/10 ms
		__ticks = (uint16_t) (__ms * 10.0);
		while(__ticks)
    2fba:	d9 f7       	brne	.-10     	; 0x2fb2 <menu+0x158>

	_delay_ms(800);
	ks0108ClearScreen();
    2fbc:	80 e0       	ldi	r24, 0x00	; 0
    2fbe:	60 e0       	ldi	r22, 0x00	; 0
    2fc0:	4f e7       	ldi	r20, 0x7F	; 127
    2fc2:	2f e3       	ldi	r18, 0x3F	; 63
    2fc4:	00 e0       	ldi	r16, 0x00	; 0
    2fc6:	0e 94 5d 0d 	call	0x1aba	; 0x1aba <ks0108FillRect>
	sw=7;
    2fca:	f0 92 7c 00 	sts	0x007C, r15
    2fce:	e0 92 7b 00 	sts	0x007B, r14
    2fd2:	c0 e0       	ldi	r28, 0x00	; 0
    2fd4:	d0 e0       	ldi	r29, 0x00	; 0
	jeetu=0;
	}
	if(sw==1)
    2fd6:	80 91 7b 00 	lds	r24, 0x007B
    2fda:	90 91 7c 00 	lds	r25, 0x007C
    2fde:	01 97       	sbiw	r24, 0x01	; 1
    2fe0:	39 f0       	breq	.+14     	; 0x2ff0 <menu+0x196>

}
// function to print menu 
void menu()
{int jeetu=0;
   while(sw!=1)
    2fe2:	80 91 7b 00 	lds	r24, 0x007B
    2fe6:	90 91 7c 00 	lds	r25, 0x007C
    2fea:	01 97       	sbiw	r24, 0x01	; 1
    2fec:	09 f0       	breq	.+2      	; 0x2ff0 <menu+0x196>
    2fee:	45 cf       	rjmp	.-374    	; 0x2e7a <menu+0x20>
	level=0;
	}
	
	}

}
    2ff0:	df 91       	pop	r29
    2ff2:	cf 91       	pop	r28
    2ff4:	0f 91       	pop	r16
    2ff6:	ff 90       	pop	r15
    2ff8:	ef 90       	pop	r14
    2ffa:	df 90       	pop	r13
    2ffc:	cf 90       	pop	r12
    2ffe:	08 95       	ret

00003000 <main>:
int j,event;
int xfood,yfood;  // variables for food 
int xfood2 , yfood2;
int food2;

int main(void) {
    3000:	2f 92       	push	r2
    3002:	3f 92       	push	r3
    3004:	4f 92       	push	r4
    3006:	5f 92       	push	r5
    3008:	6f 92       	push	r6
    300a:	7f 92       	push	r7
    300c:	8f 92       	push	r8
    300e:	9f 92       	push	r9
    3010:	af 92       	push	r10
    3012:	bf 92       	push	r11
    3014:	cf 92       	push	r12
    3016:	df 92       	push	r13
    3018:	ef 92       	push	r14
    301a:	ff 92       	push	r15
    301c:	0f 93       	push	r16
    301e:	1f 93       	push	r17
    3020:	cf 93       	push	r28
    3022:	df 93       	push	r29
int high_score1=0,high_score2=0,score1=0,score2=0,score3=0,high_score3=0;

int i,check,Fscore=0,Fscore2,score=0,time1=0,time2=0,time3=0,k;
void initADC()
{
ADMUX=(1<<REFS0);  // For Aref=AVcc;
    3024:	80 e4       	ldi	r24, 0x40	; 64
    3026:	87 b9       	out	0x07, r24	; 7
ADCSRA=(1<<ADEN)|(1<<ADIE)|(1<<ADPS2); //Prescalar div factor =8
    3028:	8c e8       	ldi	r24, 0x8C	; 140
    302a:	86 b9       	out	0x06, r24	; 6
	initADC();
	// Wait a little while the display starts up
	//for(volatile uint16_t i=0; i<15000; i++);
	
	// Initialize the LCD
	ks0108Init(0);
    302c:	80 e0       	ldi	r24, 0x00	; 0
    302e:	0e 94 f3 0d 	call	0x1be6	; 0x1be6 <ks0108Init>
uint8_t ks0108ReadFontData(const uint8_t* ptr) {
	return pgm_read_byte(ptr);
}

void ks0108SelectFont(const char* font, ks0108FontCallback callback, uint8_t color) {
	ks0108Font = font;
    3032:	83 e8       	ldi	r24, 0x83	; 131
    3034:	9c e0       	ldi	r25, 0x0C	; 12
    3036:	90 93 c7 00 	sts	0x00C7, r25
    303a:	80 93 c6 00 	sts	0x00C6, r24
	ks0108FontRead = callback;
    303e:	84 ea       	ldi	r24, 0xA4	; 164
    3040:	99 e0       	ldi	r25, 0x09	; 9
    3042:	90 93 bd 00 	sts	0x00BD, r25
    3046:	80 93 bc 00 	sts	0x00BC, r24
	ks0108FontColor = color;
    304a:	8f ef       	ldi	r24, 0xFF	; 255
    304c:	80 93 9e 00 	sts	0x009E, r24

//	ks0108DrawRoundRect(5, 55, 60, 20, 8, BLACK);



level=0;
    3050:	10 92 7a 00 	sts	0x007A, r1
    3054:	10 92 79 00 	sts	0x0079, r1


DDRB=0B00000011;
    3058:	83 e0       	ldi	r24, 0x03	; 3
    305a:	87 bb       	out	0x17, r24	; 23
PORTB=0B11111100;
    305c:	8c ef       	ldi	r24, 0xFC	; 252
    305e:	88 bb       	out	0x18, r24	; 24
prev_level=0;
    3060:	10 92 dd 00 	sts	0x00DD, r1
    3064:	10 92 dc 00 	sts	0x00DC, r1
    3068:	e9 e1       	ldi	r30, 0x19	; 25
    306a:	ce 2e       	mov	r12, r30
    306c:	d1 2c       	mov	r13, r1


while(1)
{
if(level==-1)
    306e:	80 91 79 00 	lds	r24, 0x0079
    3072:	90 91 7a 00 	lds	r25, 0x007A
    3076:	8f 5f       	subi	r24, 0xFF	; 255
    3078:	9f 4f       	sbci	r25, 0xFF	; 255
    307a:	41 f4       	brne	.+16     	; 0x308c <main+0x8c>
{
level=prev_level;
    307c:	80 91 dc 00 	lds	r24, 0x00DC
    3080:	90 91 dd 00 	lds	r25, 0x00DD
    3084:	90 93 7a 00 	sts	0x007A, r25
    3088:	80 93 79 00 	sts	0x0079, r24
}
	if(level==0)
    308c:	80 91 79 00 	lds	r24, 0x0079
    3090:	90 91 7a 00 	lds	r25, 0x007A
    3094:	89 2b       	or	r24, r25
    3096:	d1 f5       	brne	.+116    	; 0x310c <main+0x10c>
	{check_switch();	
    3098:	0e 94 be 16 	call	0x2d7c	; 0x2d7c <check_switch>

	Fscore=0;
    309c:	10 92 70 00 	sts	0x0070, r1
    30a0:	10 92 6f 00 	sts	0x006F, r1
	score1=0;
    30a4:	10 92 68 00 	sts	0x0068, r1
    30a8:	10 92 67 00 	sts	0x0067, r1
	score2=0;
    30ac:	10 92 6a 00 	sts	0x006A, r1
    30b0:	10 92 69 00 	sts	0x0069, r1
	score3=0;
    30b4:	10 92 6c 00 	sts	0x006C, r1
    30b8:	10 92 6b 00 	sts	0x006B, r1
	score=0;
    30bc:	10 92 72 00 	sts	0x0072, r1
    30c0:	10 92 71 00 	sts	0x0071, r1
	ks0108FillRect(0, 0, 128, 64, BLACK);
    30c4:	80 e0       	ldi	r24, 0x00	; 0
    30c6:	60 e0       	ldi	r22, 0x00	; 0
    30c8:	40 e8       	ldi	r20, 0x80	; 128
    30ca:	20 e4       	ldi	r18, 0x40	; 64
    30cc:	0f ef       	ldi	r16, 0xFF	; 255
    30ce:	0e 94 5d 0d 	call	0x1aba	; 0x1aba <ks0108FillRect>
	OpeningCur('W');
    30d2:	87 e5       	ldi	r24, 0x57	; 87
    30d4:	90 e0       	ldi	r25, 0x00	; 0
    30d6:	0e 94 02 14 	call	0x2804	; 0x2804 <OpeningCur>
	
	ks0108GotoXY(30,20);
    30da:	8e e1       	ldi	r24, 0x1E	; 30
    30dc:	64 e1       	ldi	r22, 0x14	; 20
    30de:	0e 94 44 0a 	call	0x1488	; 0x1488 <ks0108GotoXY>
	ks0108Puts_P(PSTR("WELCOME"));
    30e2:	88 e1       	ldi	r24, 0x18	; 24
    30e4:	93 e1       	ldi	r25, 0x13	; 19
    30e6:	0e 94 38 0c 	call	0x1870	; 0x1870 <ks0108Puts_P>
    30ea:	88 e8       	ldi	r24, 0x88	; 136
    30ec:	93 e1       	ldi	r25, 0x13	; 19
    30ee:	f6 01       	movw	r30, r12
    30f0:	31 97       	sbiw	r30, 0x01	; 1
    30f2:	f1 f7       	brne	.-4      	; 0x30f0 <main+0xf0>
		{
			// wait 1/10 ms
			_delay_loop_2(((F_CPU) / 4e3) / 10);
			__ticks --;
    30f4:	01 97       	sbiw	r24, 0x01	; 1
		__ticks = 1;
	else if (__tmp > 65535)
	{
		//	__ticks = requested delay in 1/10 ms
		__ticks = (uint16_t) (__ms * 10.0);
		while(__ticks)
    30f6:	d9 f7       	brne	.-10     	; 0x30ee <main+0xee>

	_delay_ms(500);

	OpeningCur('W');
    30f8:	87 e5       	ldi	r24, 0x57	; 87
    30fa:	90 e0       	ldi	r25, 0x00	; 0
    30fc:	0e 94 02 14 	call	0x2804	; 0x2804 <OpeningCur>
	level=1;
    3100:	81 e0       	ldi	r24, 0x01	; 1
    3102:	90 e0       	ldi	r25, 0x00	; 0
    3104:	90 93 7a 00 	sts	0x007A, r25
    3108:	80 93 79 00 	sts	0x0079, r24

	}
	if(level== 1)
    310c:	80 91 79 00 	lds	r24, 0x0079
    3110:	90 91 7a 00 	lds	r25, 0x007A
    3114:	01 97       	sbiw	r24, 0x01	; 1
    3116:	09 f0       	breq	.+2      	; 0x311a <main+0x11a>
    3118:	94 c3       	rjmp	.+1832   	; 0x3842 <main+0x842>
	{
	ks0108ClearScreen();
    311a:	80 e0       	ldi	r24, 0x00	; 0
    311c:	60 e0       	ldi	r22, 0x00	; 0
    311e:	4f e7       	ldi	r20, 0x7F	; 127
    3120:	2f e3       	ldi	r18, 0x3F	; 63
    3122:	00 e0       	ldi	r16, 0x00	; 0
    3124:	0e 94 5d 0d 	call	0x1aba	; 0x1aba <ks0108FillRect>

ks0108DrawRect(30,15,61,20,BLACK);
    3128:	8e e1       	ldi	r24, 0x1E	; 30
    312a:	6f e0       	ldi	r22, 0x0F	; 15
    312c:	4d e3       	ldi	r20, 0x3D	; 61
    312e:	24 e1       	ldi	r18, 0x14	; 20
    3130:	0f ef       	ldi	r16, 0xFF	; 255
    3132:	0e 94 f6 0e 	call	0x1dec	; 0x1dec <ks0108DrawRect>
ks0108DrawRect(31,16,59,18,BLACK);
    3136:	8f e1       	ldi	r24, 0x1F	; 31
    3138:	60 e1       	ldi	r22, 0x10	; 16
    313a:	4b e3       	ldi	r20, 0x3B	; 59
    313c:	22 e1       	ldi	r18, 0x12	; 18
    313e:	0e 94 f6 0e 	call	0x1dec	; 0x1dec <ks0108DrawRect>
ks0108GotoXY(35,20);
    3142:	83 e2       	ldi	r24, 0x23	; 35
    3144:	64 e1       	ldi	r22, 0x14	; 20
    3146:	0e 94 44 0a 	call	0x1488	; 0x1488 <ks0108GotoXY>

	ks0108Puts_P(PSTR("LEVEL 1"));
    314a:	80 e1       	ldi	r24, 0x10	; 16
    314c:	93 e1       	ldi	r25, 0x13	; 19
    314e:	0e 94 38 0c 	call	0x1870	; 0x1870 <ks0108Puts_P>
    3152:	70 e5       	ldi	r23, 0x50	; 80
    3154:	e7 2e       	mov	r14, r23
    3156:	73 ec       	ldi	r23, 0xC3	; 195
    3158:	f7 2e       	mov	r15, r23
    315a:	c7 01       	movw	r24, r14
    315c:	01 97       	sbiw	r24, 0x01	; 1
    315e:	f1 f7       	brne	.-4      	; 0x315c <main+0x15c>
	_delay_ms(200);
ks0108ClearScreen();
    3160:	80 e0       	ldi	r24, 0x00	; 0
    3162:	60 e0       	ldi	r22, 0x00	; 0
    3164:	4f e7       	ldi	r20, 0x7F	; 127
    3166:	2f e3       	ldi	r18, 0x3F	; 63
    3168:	00 e0       	ldi	r16, 0x00	; 0
    316a:	0e 94 5d 0d 	call	0x1aba	; 0x1aba <ks0108FillRect>

	ks0108GotoXY(60,20);
    316e:	8c e3       	ldi	r24, 0x3C	; 60
    3170:	64 e1       	ldi	r22, 0x14	; 20
    3172:	0e 94 44 0a 	call	0x1488	; 0x1488 <ks0108GotoXY>
ks0108Puts_P(PSTR("3"));
    3176:	8e e0       	ldi	r24, 0x0E	; 14
    3178:	93 e1       	ldi	r25, 0x13	; 19
    317a:	0e 94 38 0c 	call	0x1870	; 0x1870 <ks0108Puts_P>
    317e:	c7 01       	movw	r24, r14
    3180:	01 97       	sbiw	r24, 0x01	; 1
    3182:	f1 f7       	brne	.-4      	; 0x3180 <main+0x180>
	_delay_ms(200);
ks0108ClearScreen();
    3184:	80 e0       	ldi	r24, 0x00	; 0
    3186:	60 e0       	ldi	r22, 0x00	; 0
    3188:	4f e7       	ldi	r20, 0x7F	; 127
    318a:	2f e3       	ldi	r18, 0x3F	; 63
    318c:	0e 94 5d 0d 	call	0x1aba	; 0x1aba <ks0108FillRect>
	ks0108GotoXY(60,20);
    3190:	8c e3       	ldi	r24, 0x3C	; 60
    3192:	64 e1       	ldi	r22, 0x14	; 20
    3194:	0e 94 44 0a 	call	0x1488	; 0x1488 <ks0108GotoXY>
ks0108Puts_P(PSTR("2"));
    3198:	8c e0       	ldi	r24, 0x0C	; 12
    319a:	93 e1       	ldi	r25, 0x13	; 19
    319c:	0e 94 38 0c 	call	0x1870	; 0x1870 <ks0108Puts_P>
    31a0:	c7 01       	movw	r24, r14
    31a2:	01 97       	sbiw	r24, 0x01	; 1
    31a4:	f1 f7       	brne	.-4      	; 0x31a2 <main+0x1a2>
	_delay_ms(200);
ks0108ClearScreen();
    31a6:	80 e0       	ldi	r24, 0x00	; 0
    31a8:	60 e0       	ldi	r22, 0x00	; 0
    31aa:	4f e7       	ldi	r20, 0x7F	; 127
    31ac:	2f e3       	ldi	r18, 0x3F	; 63
    31ae:	0e 94 5d 0d 	call	0x1aba	; 0x1aba <ks0108FillRect>
	ks0108GotoXY(60,20);
    31b2:	8c e3       	ldi	r24, 0x3C	; 60
    31b4:	64 e1       	ldi	r22, 0x14	; 20
    31b6:	0e 94 44 0a 	call	0x1488	; 0x1488 <ks0108GotoXY>
ks0108Puts_P(PSTR("1"));
    31ba:	8a e0       	ldi	r24, 0x0A	; 10
    31bc:	93 e1       	ldi	r25, 0x13	; 19
    31be:	0e 94 38 0c 	call	0x1870	; 0x1870 <ks0108Puts_P>
    31c2:	c7 01       	movw	r24, r14
    31c4:	01 97       	sbiw	r24, 0x01	; 1
    31c6:	f1 f7       	brne	.-4      	; 0x31c4 <main+0x1c4>
	_delay_ms(200);
ks0108ClearScreen();
    31c8:	80 e0       	ldi	r24, 0x00	; 0
    31ca:	60 e0       	ldi	r22, 0x00	; 0
    31cc:	4f e7       	ldi	r20, 0x7F	; 127
    31ce:	2f e3       	ldi	r18, 0x3F	; 63
    31d0:	0e 94 5d 0d 	call	0x1aba	; 0x1aba <ks0108FillRect>
// printing the screen 

	
	// displaying the arena
	LoadBitmap(IMAGE);
    31d4:	83 e8       	ldi	r24, 0x83	; 131
    31d6:	98 e0       	ldi	r25, 0x08	; 8
    31d8:	0e 94 35 10 	call	0x206a	; 0x206a <LoadBitmap>

	// printing L:1
    CrHBlock(2,60,5);
    31dc:	82 e0       	ldi	r24, 0x02	; 2
    31de:	90 e0       	ldi	r25, 0x00	; 0
    31e0:	6c e3       	ldi	r22, 0x3C	; 60
    31e2:	70 e0       	ldi	r23, 0x00	; 0
    31e4:	45 e0       	ldi	r20, 0x05	; 5
    31e6:	50 e0       	ldi	r21, 0x00	; 0
    31e8:	0e 94 52 14 	call	0x28a4	; 0x28a4 <CrHBlock>
	CrVBlock(6,58,3);
    31ec:	86 e0       	ldi	r24, 0x06	; 6
    31ee:	90 e0       	ldi	r25, 0x00	; 0
    31f0:	6a e3       	ldi	r22, 0x3A	; 58
    31f2:	70 e0       	ldi	r23, 0x00	; 0
    31f4:	43 e0       	ldi	r20, 0x03	; 3
    31f6:	50 e0       	ldi	r21, 0x00	; 0
    31f8:	0e 94 34 14 	call	0x2868	; 0x2868 <CrVBlock>
	CrVBlock(2,56,1);
    31fc:	82 e0       	ldi	r24, 0x02	; 2
    31fe:	90 e0       	ldi	r25, 0x00	; 0
    3200:	68 e3       	ldi	r22, 0x38	; 56
    3202:	70 e0       	ldi	r23, 0x00	; 0
    3204:	41 e0       	ldi	r20, 0x01	; 1
    3206:	50 e0       	ldi	r21, 0x00	; 0
    3208:	0e 94 34 14 	call	0x2868	; 0x2868 <CrVBlock>
	CrVBlock(4,56,1);
    320c:	84 e0       	ldi	r24, 0x04	; 4
    320e:	90 e0       	ldi	r25, 0x00	; 0
    3210:	68 e3       	ldi	r22, 0x38	; 56
    3212:	70 e0       	ldi	r23, 0x00	; 0
    3214:	41 e0       	ldi	r20, 0x01	; 1
    3216:	50 e0       	ldi	r21, 0x00	; 0
    3218:	0e 94 34 14 	call	0x2868	; 0x2868 <CrVBlock>
    print_num(2,53,1);
    321c:	82 e0       	ldi	r24, 0x02	; 2
    321e:	90 e0       	ldi	r25, 0x00	; 0
    3220:	65 e3       	ldi	r22, 0x35	; 53
    3222:	70 e0       	ldi	r23, 0x00	; 0
    3224:	41 e0       	ldi	r20, 0x01	; 1
    3226:	50 e0       	ldi	r21, 0x00	; 0
    3228:	0e 94 aa 14 	call	0x2954	; 0x2954 <print_num>
	// displaying the ball 
	create_ball_initially(125,3);
    322c:	8d e7       	ldi	r24, 0x7D	; 125
    322e:	90 e0       	ldi	r25, 0x00	; 0
    3230:	63 e0       	ldi	r22, 0x03	; 3
    3232:	70 e0       	ldi	r23, 0x00	; 0
    3234:	0e 94 c2 10 	call	0x2184	; 0x2184 <create_ball_initially>
    3238:	88 ea       	ldi	r24, 0xA8	; 168
    323a:	91 e6       	ldi	r25, 0x61	; 97
    323c:	01 97       	sbiw	r24, 0x01	; 1
    323e:	f1 f7       	brne	.-4      	; 0x323c <main+0x23c>
	_delay_ms(100);
	clear_ball();
    3240:	0e 94 ea 10 	call	0x21d4	; 0x21d4 <clear_ball>
	create_ball_initially(125,3);
    3244:	8d e7       	ldi	r24, 0x7D	; 125
    3246:	90 e0       	ldi	r25, 0x00	; 0
    3248:	63 e0       	ldi	r22, 0x03	; 3
    324a:	70 e0       	ldi	r23, 0x00	; 0
    324c:	0e 94 c2 10 	call	0x2184	; 0x2184 <create_ball_initially>

	time=100;
    3250:	84 e6       	ldi	r24, 0x64	; 100
    3252:	90 e0       	ldi	r25, 0x00	; 0
    3254:	90 93 c1 00 	sts	0x00C1, r25
    3258:	80 93 c0 00 	sts	0x00C0, r24
	score=0;
    325c:	10 92 72 00 	sts	0x0072, r1
    3260:	10 92 71 00 	sts	0x0071, r1
	test_time=0;
    3264:	10 92 9b 00 	sts	0x009B, r1
    3268:	10 92 9a 00 	sts	0x009A, r1
	d1=0;
    326c:	10 92 95 00 	sts	0x0095, r1
    3270:	10 92 94 00 	sts	0x0094, r1
	d2=0;
    3274:	10 92 b7 00 	sts	0x00B7, r1
    3278:	10 92 b6 00 	sts	0x00B6, r1
	d3=0;
    327c:	10 92 e1 00 	sts	0x00E1, r1
    3280:	10 92 e0 00 	sts	0x00E0, r1
    3284:	64 ed       	ldi	r22, 0xD4	; 212
    3286:	e6 2e       	mov	r14, r22
    3288:	60 e3       	ldi	r22, 0x30	; 48
    328a:	f6 2e       	mov	r15, r22
_delay_ms(25);
}
  // conditin for the level to end 
	if(xpos==10||xpos==9||xpos==8)
	{time1=time;
	Fscore=Fscore+71*time;
    328c:	cc e5       	ldi	r28, 0x5C	; 92
    328e:	d4 e4       	ldi	r29, 0x44	; 68
    3290:	5a e6       	ldi	r21, 0x6A	; 106
    3292:	a5 2e       	mov	r10, r21
    3294:	58 e1       	ldi	r21, 0x18	; 24
    3296:	b5 2e       	mov	r11, r21
    3298:	47 e4       	ldi	r20, 0x47	; 71
    329a:	64 2e       	mov	r6, r20
    329c:	71 2c       	mov	r7, r1
	ks0108Puts(a);
	_delay_ms(500);
	
*/	 

	level=2;
    329e:	32 e0       	ldi	r19, 0x02	; 2
    32a0:	43 2e       	mov	r4, r19
    32a2:	51 2c       	mov	r5, r1
	print_num(2,21,d1);
	}
	}
	if(time<10)
	{
	PORTB=0B11111101;
    32a4:	2d ef       	ldi	r18, 0xFD	; 253
    32a6:	32 2e       	mov	r3, r18
	
	
	
	if(time<=0)
	{
	PORTB=0B11111100;
    32a8:	1c ef       	ldi	r17, 0xFC	; 252
    32aa:	98 ea       	ldi	r25, 0xA8	; 168
    32ac:	89 2e       	mov	r8, r25
    32ae:	91 e6       	ldi	r25, 0x61	; 97
    32b0:	99 2e       	mov	r9, r25
    32b2:	c0 c2       	rjmp	.+1408   	; 0x3834 <main+0x834>
	{



	
check_switch();
    32b4:	0e 94 be 16 	call	0x2d7c	; 0x2d7c <check_switch>
  	check=surroundings();
    32b8:	0e 94 aa 11 	call	0x2354	; 0x2354 <surroundings>
    32bc:	90 93 a4 00 	sts	0x00A4, r25
    32c0:	80 93 a3 00 	sts	0x00A3, r24
  accelerate();
    32c4:	0e 94 f2 15 	call	0x2be4	; 0x2be4 <accelerate>


  if(y>365 && check%1000>=100 && xpos<=124)// moving the ball right with no rebounding conditions
    32c8:	20 91 c2 00 	lds	r18, 0x00C2
    32cc:	30 91 c3 00 	lds	r19, 0x00C3
    32d0:	41 e0       	ldi	r20, 0x01	; 1
    32d2:	2e 36       	cpi	r18, 0x6E	; 110
    32d4:	34 07       	cpc	r19, r20
    32d6:	4c f1       	brlt	.+82     	; 0x332a <main+0x32a>
    32d8:	80 91 a3 00 	lds	r24, 0x00A3
    32dc:	90 91 a4 00 	lds	r25, 0x00A4
    32e0:	68 ee       	ldi	r22, 0xE8	; 232
    32e2:	73 e0       	ldi	r23, 0x03	; 3
    32e4:	0e 94 a7 2b 	call	0x574e	; 0x574e <__divmodhi4>
    32e8:	84 36       	cpi	r24, 0x64	; 100
    32ea:	91 05       	cpc	r25, r1
    32ec:	f4 f0       	brlt	.+60     	; 0x332a <main+0x32a>
    32ee:	80 91 8b 00 	lds	r24, 0x008B
    32f2:	8d 37       	cpi	r24, 0x7D	; 125
    32f4:	d0 f4       	brcc	.+52     	; 0x332a <main+0x32a>
  {
  move_ball('r');
    32f6:	82 e7       	ldi	r24, 0x72	; 114
    32f8:	90 e0       	ldi	r25, 0x00	; 0
    32fa:	0e 94 38 11 	call	0x2270	; 0x2270 <move_ball>
  v_r++;
    32fe:	80 91 ba 00 	lds	r24, 0x00BA
    3302:	90 91 bb 00 	lds	r25, 0x00BB
    3306:	01 96       	adiw	r24, 0x01	; 1
    3308:	90 93 bb 00 	sts	0x00BB, r25
    330c:	80 93 ba 00 	sts	0x00BA, r24
  v_u=0;
    3310:	10 92 c5 00 	sts	0x00C5, r1
    3314:	10 92 c4 00 	sts	0x00C4, r1
  v_d=0;
    3318:	10 92 df 00 	sts	0x00DF, r1
    331c:	10 92 de 00 	sts	0x00DE, r1
  v_l=0;
    3320:	10 92 80 00 	sts	0x0080, r1
    3324:	10 92 7f 00 	sts	0x007F, r1
    3328:	27 c0       	rjmp	.+78     	; 0x3378 <main+0x378>
  
  }
  
  // moving the ball left with no rebounding conditions
  else if(y<350 && check %10000>=1000 && xpos>=0)
    332a:	2e 55       	subi	r18, 0x5E	; 94
    332c:	31 40       	sbci	r19, 0x01	; 1
    332e:	24 f5       	brge	.+72     	; 0x3378 <main+0x378>
    3330:	80 91 a3 00 	lds	r24, 0x00A3
    3334:	90 91 a4 00 	lds	r25, 0x00A4
    3338:	60 e1       	ldi	r22, 0x10	; 16
    333a:	77 e2       	ldi	r23, 0x27	; 39
    333c:	0e 94 a7 2b 	call	0x574e	; 0x574e <__divmodhi4>
    3340:	88 5e       	subi	r24, 0xE8	; 232
    3342:	93 40       	sbci	r25, 0x03	; 3
    3344:	cc f0       	brlt	.+50     	; 0x3378 <main+0x378>
  {
  move_ball('l');
    3346:	8c e6       	ldi	r24, 0x6C	; 108
    3348:	90 e0       	ldi	r25, 0x00	; 0
    334a:	0e 94 38 11 	call	0x2270	; 0x2270 <move_ball>
  v_l++;
    334e:	80 91 7f 00 	lds	r24, 0x007F
    3352:	90 91 80 00 	lds	r25, 0x0080
    3356:	01 96       	adiw	r24, 0x01	; 1
    3358:	90 93 80 00 	sts	0x0080, r25
    335c:	80 93 7f 00 	sts	0x007F, r24
  v_d=0;
    3360:	10 92 df 00 	sts	0x00DF, r1
    3364:	10 92 de 00 	sts	0x00DE, r1
  v_r=0;
    3368:	10 92 bb 00 	sts	0x00BB, r1
    336c:	10 92 ba 00 	sts	0x00BA, r1
  v_u=0;
    3370:	10 92 c5 00 	sts	0x00C5, r1
    3374:	10 92 c4 00 	sts	0x00C4, r1
  
  }
 
  // moving the ball upwards with no rebounding conditions
  if(x>370 && check%10>=1)
    3378:	20 91 8e 00 	lds	r18, 0x008E
    337c:	30 91 8f 00 	lds	r19, 0x008F
    3380:	41 e0       	ldi	r20, 0x01	; 1
    3382:	23 37       	cpi	r18, 0x73	; 115
    3384:	34 07       	cpc	r19, r20
    3386:	ec f0       	brlt	.+58     	; 0x33c2 <main+0x3c2>
    3388:	80 91 a3 00 	lds	r24, 0x00A3
    338c:	90 91 a4 00 	lds	r25, 0x00A4
    3390:	6a e0       	ldi	r22, 0x0A	; 10
    3392:	70 e0       	ldi	r23, 0x00	; 0
    3394:	0e 94 a7 2b 	call	0x574e	; 0x574e <__divmodhi4>
    3398:	18 16       	cp	r1, r24
    339a:	19 06       	cpc	r1, r25
    339c:	94 f4       	brge	.+36     	; 0x33c2 <main+0x3c2>
  {
  move_ball('u');
    339e:	85 e7       	ldi	r24, 0x75	; 117
    33a0:	90 e0       	ldi	r25, 0x00	; 0
    33a2:	0e 94 38 11 	call	0x2270	; 0x2270 <move_ball>
  v_u++;
    33a6:	80 91 c4 00 	lds	r24, 0x00C4
    33aa:	90 91 c5 00 	lds	r25, 0x00C5
    33ae:	01 96       	adiw	r24, 0x01	; 1
    33b0:	90 93 c5 00 	sts	0x00C5, r25
    33b4:	80 93 c4 00 	sts	0x00C4, r24
  v_d=0;
    33b8:	10 92 df 00 	sts	0x00DF, r1
    33bc:	10 92 de 00 	sts	0x00DE, r1
    33c0:	22 c0       	rjmp	.+68     	; 0x3406 <main+0x406>
 
  
 
 
  // moving ball down wards
  else if(x<350 && check %100 >=10 && ypos<=62)
    33c2:	2e 55       	subi	r18, 0x5E	; 94
    33c4:	31 40       	sbci	r19, 0x01	; 1
    33c6:	3c f5       	brge	.+78     	; 0x3416 <main+0x416>
    33c8:	80 91 a3 00 	lds	r24, 0x00A3
    33cc:	90 91 a4 00 	lds	r25, 0x00A4
    33d0:	64 e6       	ldi	r22, 0x64	; 100
    33d2:	70 e0       	ldi	r23, 0x00	; 0
    33d4:	0e 94 a7 2b 	call	0x574e	; 0x574e <__divmodhi4>
    33d8:	0a 97       	sbiw	r24, 0x0a	; 10
    33da:	ec f0       	brlt	.+58     	; 0x3416 <main+0x416>
    33dc:	80 91 cf 00 	lds	r24, 0x00CF
    33e0:	8f 33       	cpi	r24, 0x3F	; 63
    33e2:	c8 f4       	brcc	.+50     	; 0x3416 <main+0x416>
  {
  move_ball('d');
    33e4:	84 e6       	ldi	r24, 0x64	; 100
    33e6:	90 e0       	ldi	r25, 0x00	; 0
    33e8:	0e 94 38 11 	call	0x2270	; 0x2270 <move_ball>
  v_d++;
    33ec:	80 91 de 00 	lds	r24, 0x00DE
    33f0:	90 91 df 00 	lds	r25, 0x00DF
    33f4:	01 96       	adiw	r24, 0x01	; 1
    33f6:	90 93 df 00 	sts	0x00DF, r25
    33fa:	80 93 de 00 	sts	0x00DE, r24
  v_u=0;
    33fe:	10 92 c5 00 	sts	0x00C5, r1
    3402:	10 92 c4 00 	sts	0x00C4, r1
  v_l=0;
    3406:	10 92 80 00 	sts	0x0080, r1
    340a:	10 92 7f 00 	sts	0x007F, r1
  v_r=0;
    340e:	10 92 bb 00 	sts	0x00BB, r1
    3412:	10 92 ba 00 	sts	0x00BA, r1
  
  }
  // rebounding condition 
  // upwards
  if(check%10<1 && v_u>10)
    3416:	80 91 a3 00 	lds	r24, 0x00A3
    341a:	90 91 a4 00 	lds	r25, 0x00A4
    341e:	6a e0       	ldi	r22, 0x0A	; 10
    3420:	70 e0       	ldi	r23, 0x00	; 0
    3422:	0e 94 a7 2b 	call	0x574e	; 0x574e <__divmodhi4>
    3426:	18 16       	cp	r1, r24
    3428:	19 06       	cpc	r1, r25
    342a:	14 f1       	brlt	.+68     	; 0x3470 <main+0x470>
    342c:	80 91 c4 00 	lds	r24, 0x00C4
    3430:	90 91 c5 00 	lds	r25, 0x00C5
    3434:	0b 97       	sbiw	r24, 0x0b	; 11
    3436:	e4 f0       	brlt	.+56     	; 0x3470 <main+0x470>
  { 
  move_ball('b');
    3438:	82 e6       	ldi	r24, 0x62	; 98
    343a:	90 e0       	ldi	r25, 0x00	; 0
    343c:	0e 94 38 11 	call	0x2270	; 0x2270 <move_ball>
    3440:	c7 01       	movw	r24, r14
    3442:	01 97       	sbiw	r24, 0x01	; 1
    3444:	f1 f7       	brne	.-4      	; 0x3442 <main+0x442>
  _delay_ms(50);
  move_ball('b');
    3446:	82 e6       	ldi	r24, 0x62	; 98
    3448:	90 e0       	ldi	r25, 0x00	; 0
    344a:	0e 94 38 11 	call	0x2270	; 0x2270 <move_ball>
    344e:	c7 01       	movw	r24, r14
    3450:	01 97       	sbiw	r24, 0x01	; 1
    3452:	f1 f7       	brne	.-4      	; 0x3450 <main+0x450>
  _delay_ms(50);
  move_ball('b');
    3454:	82 e6       	ldi	r24, 0x62	; 98
    3456:	90 e0       	ldi	r25, 0x00	; 0
    3458:	0e 94 38 11 	call	0x2270	; 0x2270 <move_ball>
    345c:	c7 01       	movw	r24, r14
    345e:	01 97       	sbiw	r24, 0x01	; 1
    3460:	f1 f7       	brne	.-4      	; 0x345e <main+0x45e>
   _delay_ms(50);
  move_ball('b');
    3462:	82 e6       	ldi	r24, 0x62	; 98
    3464:	90 e0       	ldi	r25, 0x00	; 0
    3466:	0e 94 38 11 	call	0x2270	; 0x2270 <move_ball>
    346a:	c7 01       	movw	r24, r14
    346c:	01 97       	sbiw	r24, 0x01	; 1
    346e:	f1 f7       	brne	.-4      	; 0x346c <main+0x46c>
  _delay_ms(50);

   }
   // downwards
   if(check %100<10 && v_d>10)
    3470:	80 91 a3 00 	lds	r24, 0x00A3
    3474:	90 91 a4 00 	lds	r25, 0x00A4
    3478:	64 e6       	ldi	r22, 0x64	; 100
    347a:	70 e0       	ldi	r23, 0x00	; 0
    347c:	0e 94 a7 2b 	call	0x574e	; 0x574e <__divmodhi4>
    3480:	0a 97       	sbiw	r24, 0x0a	; 10
    3482:	14 f5       	brge	.+68     	; 0x34c8 <main+0x4c8>
    3484:	80 91 de 00 	lds	r24, 0x00DE
    3488:	90 91 df 00 	lds	r25, 0x00DF
    348c:	0b 97       	sbiw	r24, 0x0b	; 11
    348e:	e4 f0       	brlt	.+56     	; 0x34c8 <main+0x4c8>
   {move_ball('u');
    3490:	85 e7       	ldi	r24, 0x75	; 117
    3492:	90 e0       	ldi	r25, 0x00	; 0
    3494:	0e 94 38 11 	call	0x2270	; 0x2270 <move_ball>
    3498:	ce 01       	movw	r24, r28
    349a:	01 97       	sbiw	r24, 0x01	; 1
    349c:	f1 f7       	brne	.-4      	; 0x349a <main+0x49a>
   _delay_ms(70);
   move_ball('u');
    349e:	85 e7       	ldi	r24, 0x75	; 117
    34a0:	90 e0       	ldi	r25, 0x00	; 0
    34a2:	0e 94 38 11 	call	0x2270	; 0x2270 <move_ball>
    34a6:	ce 01       	movw	r24, r28
    34a8:	01 97       	sbiw	r24, 0x01	; 1
    34aa:	f1 f7       	brne	.-4      	; 0x34a8 <main+0x4a8>
   _delay_ms(70);
   move_ball('u');
    34ac:	85 e7       	ldi	r24, 0x75	; 117
    34ae:	90 e0       	ldi	r25, 0x00	; 0
    34b0:	0e 94 38 11 	call	0x2270	; 0x2270 <move_ball>
    34b4:	ce 01       	movw	r24, r28
    34b6:	01 97       	sbiw	r24, 0x01	; 1
    34b8:	f1 f7       	brne	.-4      	; 0x34b6 <main+0x4b6>
   _delay_ms(70);
   move_ball('u');
    34ba:	85 e7       	ldi	r24, 0x75	; 117
    34bc:	90 e0       	ldi	r25, 0x00	; 0
    34be:	0e 94 38 11 	call	0x2270	; 0x2270 <move_ball>
    34c2:	ce 01       	movw	r24, r28
    34c4:	01 97       	sbiw	r24, 0x01	; 1
    34c6:	f1 f7       	brne	.-4      	; 0x34c4 <main+0x4c4>
   _delay_ms(70);


   }
   // left 
   if(check %10000 <1000 && v_l>10)
    34c8:	80 91 a3 00 	lds	r24, 0x00A3
    34cc:	90 91 a4 00 	lds	r25, 0x00A4
    34d0:	60 e1       	ldi	r22, 0x10	; 16
    34d2:	77 e2       	ldi	r23, 0x27	; 39
    34d4:	0e 94 a7 2b 	call	0x574e	; 0x574e <__divmodhi4>
    34d8:	88 5e       	subi	r24, 0xE8	; 232
    34da:	93 40       	sbci	r25, 0x03	; 3
    34dc:	14 f5       	brge	.+68     	; 0x3522 <main+0x522>
    34de:	80 91 7f 00 	lds	r24, 0x007F
    34e2:	90 91 80 00 	lds	r25, 0x0080
    34e6:	0b 97       	sbiw	r24, 0x0b	; 11
    34e8:	e4 f0       	brlt	.+56     	; 0x3522 <main+0x522>
   {move_ball('r');
    34ea:	82 e7       	ldi	r24, 0x72	; 114
    34ec:	90 e0       	ldi	r25, 0x00	; 0
    34ee:	0e 94 38 11 	call	0x2270	; 0x2270 <move_ball>
    34f2:	ce 01       	movw	r24, r28
    34f4:	01 97       	sbiw	r24, 0x01	; 1
    34f6:	f1 f7       	brne	.-4      	; 0x34f4 <main+0x4f4>
   _delay_ms(70);
   move_ball('r');
    34f8:	82 e7       	ldi	r24, 0x72	; 114
    34fa:	90 e0       	ldi	r25, 0x00	; 0
    34fc:	0e 94 38 11 	call	0x2270	; 0x2270 <move_ball>
    3500:	ce 01       	movw	r24, r28
    3502:	01 97       	sbiw	r24, 0x01	; 1
    3504:	f1 f7       	brne	.-4      	; 0x3502 <main+0x502>
   _delay_ms(70);
   move_ball('r');
    3506:	82 e7       	ldi	r24, 0x72	; 114
    3508:	90 e0       	ldi	r25, 0x00	; 0
    350a:	0e 94 38 11 	call	0x2270	; 0x2270 <move_ball>
    350e:	ce 01       	movw	r24, r28
    3510:	01 97       	sbiw	r24, 0x01	; 1
    3512:	f1 f7       	brne	.-4      	; 0x3510 <main+0x510>
   _delay_ms(70);
   move_ball('r');
    3514:	82 e7       	ldi	r24, 0x72	; 114
    3516:	90 e0       	ldi	r25, 0x00	; 0
    3518:	0e 94 38 11 	call	0x2270	; 0x2270 <move_ball>
    351c:	ce 01       	movw	r24, r28
    351e:	01 97       	sbiw	r24, 0x01	; 1
    3520:	f1 f7       	brne	.-4      	; 0x351e <main+0x51e>
   _delay_ms(70);
   
   }
   // right
   if(check %1000 <100 && v_r>10)
    3522:	80 91 a3 00 	lds	r24, 0x00A3
    3526:	90 91 a4 00 	lds	r25, 0x00A4
    352a:	68 ee       	ldi	r22, 0xE8	; 232
    352c:	73 e0       	ldi	r23, 0x03	; 3
    352e:	0e 94 a7 2b 	call	0x574e	; 0x574e <__divmodhi4>
    3532:	84 36       	cpi	r24, 0x64	; 100
    3534:	91 05       	cpc	r25, r1
    3536:	14 f5       	brge	.+68     	; 0x357c <main+0x57c>
    3538:	80 91 ba 00 	lds	r24, 0x00BA
    353c:	90 91 bb 00 	lds	r25, 0x00BB
    3540:	0b 97       	sbiw	r24, 0x0b	; 11
    3542:	e4 f0       	brlt	.+56     	; 0x357c <main+0x57c>
   {
   move_ball('l');
    3544:	8c e6       	ldi	r24, 0x6C	; 108
    3546:	90 e0       	ldi	r25, 0x00	; 0
    3548:	0e 94 38 11 	call	0x2270	; 0x2270 <move_ball>
    354c:	ce 01       	movw	r24, r28
    354e:	01 97       	sbiw	r24, 0x01	; 1
    3550:	f1 f7       	brne	.-4      	; 0x354e <main+0x54e>
   _delay_ms(70);
   move_ball('l');
    3552:	8c e6       	ldi	r24, 0x6C	; 108
    3554:	90 e0       	ldi	r25, 0x00	; 0
    3556:	0e 94 38 11 	call	0x2270	; 0x2270 <move_ball>
    355a:	ce 01       	movw	r24, r28
    355c:	01 97       	sbiw	r24, 0x01	; 1
    355e:	f1 f7       	brne	.-4      	; 0x355c <main+0x55c>
   _delay_ms(70);
   move_ball('l');
    3560:	8c e6       	ldi	r24, 0x6C	; 108
    3562:	90 e0       	ldi	r25, 0x00	; 0
    3564:	0e 94 38 11 	call	0x2270	; 0x2270 <move_ball>
    3568:	ce 01       	movw	r24, r28
    356a:	01 97       	sbiw	r24, 0x01	; 1
    356c:	f1 f7       	brne	.-4      	; 0x356a <main+0x56a>
   _delay_ms(70);
   move_ball('l');
    356e:	8c e6       	ldi	r24, 0x6C	; 108
    3570:	90 e0       	ldi	r25, 0x00	; 0
    3572:	0e 94 38 11 	call	0x2270	; 0x2270 <move_ball>
    3576:	ce 01       	movw	r24, r28
    3578:	01 97       	sbiw	r24, 0x01	; 1
    357a:	f1 f7       	brne	.-4      	; 0x3578 <main+0x578>
else 
{
_delay_ms(25);
}
  // conditin for the level to end 
	if(xpos==10||xpos==9||xpos==8)
    357c:	c5 01       	movw	r24, r10
    357e:	01 97       	sbiw	r24, 0x01	; 1
    3580:	f1 f7       	brne	.-4      	; 0x357e <main+0x57e>
    3582:	80 91 8b 00 	lds	r24, 0x008B
    3586:	88 50       	subi	r24, 0x08	; 8
    3588:	83 30       	cpi	r24, 0x03	; 3
    358a:	60 f5       	brcc	.+88     	; 0x35e4 <main+0x5e4>
	{time1=time;
    358c:	80 91 c0 00 	lds	r24, 0x00C0
    3590:	90 91 c1 00 	lds	r25, 0x00C1
    3594:	90 93 74 00 	sts	0x0074, r25
    3598:	80 93 73 00 	sts	0x0073, r24
	Fscore=Fscore+71*time;
    359c:	86 9d       	mul	r24, r6
    359e:	90 01       	movw	r18, r0
    35a0:	87 9d       	mul	r24, r7
    35a2:	30 0d       	add	r19, r0
    35a4:	96 9d       	mul	r25, r6
    35a6:	30 0d       	add	r19, r0
    35a8:	11 24       	eor	r1, r1
    35aa:	80 91 6f 00 	lds	r24, 0x006F
    35ae:	90 91 70 00 	lds	r25, 0x0070
    35b2:	82 0f       	add	r24, r18
    35b4:	93 1f       	adc	r25, r19
    35b6:	90 93 70 00 	sts	0x0070, r25
    35ba:	80 93 6f 00 	sts	0x006F, r24
	ks0108ClearScreen();// clear the screen
    35be:	80 e0       	ldi	r24, 0x00	; 0
    35c0:	60 e0       	ldi	r22, 0x00	; 0
    35c2:	4f e7       	ldi	r20, 0x7F	; 127
    35c4:	2f e3       	ldi	r18, 0x3F	; 63
    35c6:	00 e0       	ldi	r16, 0x00	; 0
    35c8:	0e 94 5d 0d 	call	0x1aba	; 0x1aba <ks0108FillRect>
	//print the message
		ks0108GotoXY(10,10);
    35cc:	8a e0       	ldi	r24, 0x0A	; 10
    35ce:	6a e0       	ldi	r22, 0x0A	; 10
    35d0:	0e 94 44 0a 	call	0x1488	; 0x1488 <ks0108GotoXY>
	ks0108Puts_P(PSTR("Level Completed"));
    35d4:	8a ef       	ldi	r24, 0xFA	; 250
    35d6:	92 e1       	ldi	r25, 0x12	; 18
    35d8:	0e 94 38 0c 	call	0x1870	; 0x1870 <ks0108Puts_P>
	ks0108Puts(a);
	_delay_ms(500);
	
*/	 

	level=2;
    35dc:	50 92 7a 00 	sts	0x007A, r5
    35e0:	40 92 79 00 	sts	0x0079, r4


	}// end of if
	if(test_time==20)
    35e4:	80 91 9a 00 	lds	r24, 0x009A
    35e8:	90 91 9b 00 	lds	r25, 0x009B
    35ec:	44 97       	sbiw	r24, 0x14	; 20
    35ee:	09 f0       	breq	.+2      	; 0x35f2 <main+0x5f2>
    35f0:	c4 c0       	rjmp	.+392    	; 0x377a <main+0x77a>
	{
	time--;
    35f2:	20 91 c0 00 	lds	r18, 0x00C0
    35f6:	30 91 c1 00 	lds	r19, 0x00C1
    35fa:	21 50       	subi	r18, 0x01	; 1
    35fc:	30 40       	sbci	r19, 0x00	; 0
    35fe:	30 93 c1 00 	sts	0x00C1, r19
    3602:	20 93 c0 00 	sts	0x00C0, r18
	test_time=0;
    3606:	10 92 9b 00 	sts	0x009B, r1
    360a:	10 92 9a 00 	sts	0x009A, r1

	d3=time%10;
    360e:	c9 01       	movw	r24, r18
    3610:	6a e0       	ldi	r22, 0x0A	; 10
    3612:	70 e0       	ldi	r23, 0x00	; 0
    3614:	0e 94 a7 2b 	call	0x574e	; 0x574e <__divmodhi4>
    3618:	90 93 e1 00 	sts	0x00E1, r25
    361c:	80 93 e0 00 	sts	0x00E0, r24
	d2=(time/10)%10;
    3620:	c9 01       	movw	r24, r18
    3622:	6a e0       	ldi	r22, 0x0A	; 10
    3624:	70 e0       	ldi	r23, 0x00	; 0
    3626:	0e 94 a7 2b 	call	0x574e	; 0x574e <__divmodhi4>
    362a:	cb 01       	movw	r24, r22
    362c:	6a e0       	ldi	r22, 0x0A	; 10
    362e:	70 e0       	ldi	r23, 0x00	; 0
    3630:	0e 94 a7 2b 	call	0x574e	; 0x574e <__divmodhi4>
    3634:	90 93 b7 00 	sts	0x00B7, r25
    3638:	80 93 b6 00 	sts	0x00B6, r24
	d1=(time/100);
    363c:	c9 01       	movw	r24, r18
    363e:	64 e6       	ldi	r22, 0x64	; 100
    3640:	70 e0       	ldi	r23, 0x00	; 0
    3642:	0e 94 a7 2b 	call	0x574e	; 0x574e <__divmodhi4>
    3646:	70 93 95 00 	sts	0x0095, r23
    364a:	60 93 94 00 	sts	0x0094, r22

if(time%100==99)
    364e:	c9 01       	movw	r24, r18
    3650:	64 e6       	ldi	r22, 0x64	; 100
    3652:	70 e0       	ldi	r23, 0x00	; 0
    3654:	0e 94 a7 2b 	call	0x574e	; 0x574e <__divmodhi4>
    3658:	83 36       	cpi	r24, 0x63	; 99
    365a:	91 05       	cpc	r25, r1
    365c:	81 f5       	brne	.+96     	; 0x36be <main+0x6be>
	{
	BlockClear(2,21);
    365e:	82 e0       	ldi	r24, 0x02	; 2
    3660:	90 e0       	ldi	r25, 0x00	; 0
    3662:	65 e1       	ldi	r22, 0x15	; 21
    3664:	70 e0       	ldi	r23, 0x00	; 0
    3666:	0e 94 f6 16 	call	0x2dec	; 0x2dec <BlockClear>
	BlockClear(2,16);
    366a:	82 e0       	ldi	r24, 0x02	; 2
    366c:	90 e0       	ldi	r25, 0x00	; 0
    366e:	60 e1       	ldi	r22, 0x10	; 16
    3670:	70 e0       	ldi	r23, 0x00	; 0
    3672:	0e 94 f6 16 	call	0x2dec	; 0x2dec <BlockClear>
	BlockClear(2,11);
    3676:	82 e0       	ldi	r24, 0x02	; 2
    3678:	90 e0       	ldi	r25, 0x00	; 0
    367a:	6b e0       	ldi	r22, 0x0B	; 11
    367c:	70 e0       	ldi	r23, 0x00	; 0
    367e:	0e 94 f6 16 	call	0x2dec	; 0x2dec <BlockClear>
	print_num(2,11,d3);
    3682:	40 91 e0 00 	lds	r20, 0x00E0
    3686:	50 91 e1 00 	lds	r21, 0x00E1
    368a:	82 e0       	ldi	r24, 0x02	; 2
    368c:	90 e0       	ldi	r25, 0x00	; 0
    368e:	6b e0       	ldi	r22, 0x0B	; 11
    3690:	70 e0       	ldi	r23, 0x00	; 0
    3692:	0e 94 aa 14 	call	0x2954	; 0x2954 <print_num>
	print_num(2,16,d2);
    3696:	40 91 b6 00 	lds	r20, 0x00B6
    369a:	50 91 b7 00 	lds	r21, 0x00B7
    369e:	82 e0       	ldi	r24, 0x02	; 2
    36a0:	90 e0       	ldi	r25, 0x00	; 0
    36a2:	60 e1       	ldi	r22, 0x10	; 16
    36a4:	70 e0       	ldi	r23, 0x00	; 0
    36a6:	0e 94 aa 14 	call	0x2954	; 0x2954 <print_num>
	print_num(2,21,d1);
    36aa:	40 91 94 00 	lds	r20, 0x0094
    36ae:	50 91 95 00 	lds	r21, 0x0095
    36b2:	82 e0       	ldi	r24, 0x02	; 2
    36b4:	90 e0       	ldi	r25, 0x00	; 0
    36b6:	65 e1       	ldi	r22, 0x15	; 21
    36b8:	70 e0       	ldi	r23, 0x00	; 0
    36ba:	0e 94 aa 14 	call	0x2954	; 0x2954 <print_num>
	}

	if(time%10==9)
    36be:	80 91 c0 00 	lds	r24, 0x00C0
    36c2:	90 91 c1 00 	lds	r25, 0x00C1
    36c6:	6a e0       	ldi	r22, 0x0A	; 10
    36c8:	70 e0       	ldi	r23, 0x00	; 0
    36ca:	0e 94 a7 2b 	call	0x574e	; 0x574e <__divmodhi4>
    36ce:	09 97       	sbiw	r24, 0x09	; 9
    36d0:	51 f5       	brne	.+84     	; 0x3726 <main+0x726>
	{
	BlockClear(2,11);
    36d2:	82 e0       	ldi	r24, 0x02	; 2
    36d4:	90 e0       	ldi	r25, 0x00	; 0
    36d6:	6b e0       	ldi	r22, 0x0B	; 11
    36d8:	70 e0       	ldi	r23, 0x00	; 0
    36da:	0e 94 f6 16 	call	0x2dec	; 0x2dec <BlockClear>
	BlockClear(2,16);
    36de:	82 e0       	ldi	r24, 0x02	; 2
    36e0:	90 e0       	ldi	r25, 0x00	; 0
    36e2:	60 e1       	ldi	r22, 0x10	; 16
    36e4:	70 e0       	ldi	r23, 0x00	; 0
    36e6:	0e 94 f6 16 	call	0x2dec	; 0x2dec <BlockClear>
	print_num(2,11,d3);
    36ea:	40 91 e0 00 	lds	r20, 0x00E0
    36ee:	50 91 e1 00 	lds	r21, 0x00E1
    36f2:	82 e0       	ldi	r24, 0x02	; 2
    36f4:	90 e0       	ldi	r25, 0x00	; 0
    36f6:	6b e0       	ldi	r22, 0x0B	; 11
    36f8:	70 e0       	ldi	r23, 0x00	; 0
    36fa:	0e 94 aa 14 	call	0x2954	; 0x2954 <print_num>
	print_num(2,16,d2);
    36fe:	40 91 b6 00 	lds	r20, 0x00B6
    3702:	50 91 b7 00 	lds	r21, 0x00B7
    3706:	82 e0       	ldi	r24, 0x02	; 2
    3708:	90 e0       	ldi	r25, 0x00	; 0
    370a:	60 e1       	ldi	r22, 0x10	; 16
    370c:	70 e0       	ldi	r23, 0x00	; 0
    370e:	0e 94 aa 14 	call	0x2954	; 0x2954 <print_num>
	print_num(2,21,d1);
    3712:	40 91 94 00 	lds	r20, 0x0094
    3716:	50 91 95 00 	lds	r21, 0x0095
    371a:	82 e0       	ldi	r24, 0x02	; 2
    371c:	90 e0       	ldi	r25, 0x00	; 0
    371e:	65 e1       	ldi	r22, 0x15	; 21
    3720:	70 e0       	ldi	r23, 0x00	; 0
    3722:	0e 94 aa 14 	call	0x2954	; 0x2954 <print_num>
	}
	
	if(d3>=0)
    3726:	80 91 e0 00 	lds	r24, 0x00E0
    372a:	90 91 e1 00 	lds	r25, 0x00E1
    372e:	97 fd       	sbrc	r25, 7
    3730:	24 c0       	rjmp	.+72     	; 0x377a <main+0x77a>
	{
	BlockClear(2,11);
    3732:	82 e0       	ldi	r24, 0x02	; 2
    3734:	90 e0       	ldi	r25, 0x00	; 0
    3736:	6b e0       	ldi	r22, 0x0B	; 11
    3738:	70 e0       	ldi	r23, 0x00	; 0
    373a:	0e 94 f6 16 	call	0x2dec	; 0x2dec <BlockClear>
	print_num(2,11,d3);
    373e:	40 91 e0 00 	lds	r20, 0x00E0
    3742:	50 91 e1 00 	lds	r21, 0x00E1
    3746:	82 e0       	ldi	r24, 0x02	; 2
    3748:	90 e0       	ldi	r25, 0x00	; 0
    374a:	6b e0       	ldi	r22, 0x0B	; 11
    374c:	70 e0       	ldi	r23, 0x00	; 0
    374e:	0e 94 aa 14 	call	0x2954	; 0x2954 <print_num>
	print_num(2,16,d2);
    3752:	40 91 b6 00 	lds	r20, 0x00B6
    3756:	50 91 b7 00 	lds	r21, 0x00B7
    375a:	82 e0       	ldi	r24, 0x02	; 2
    375c:	90 e0       	ldi	r25, 0x00	; 0
    375e:	60 e1       	ldi	r22, 0x10	; 16
    3760:	70 e0       	ldi	r23, 0x00	; 0
    3762:	0e 94 aa 14 	call	0x2954	; 0x2954 <print_num>
	print_num(2,21,d1);
    3766:	40 91 94 00 	lds	r20, 0x0094
    376a:	50 91 95 00 	lds	r21, 0x0095
    376e:	82 e0       	ldi	r24, 0x02	; 2
    3770:	90 e0       	ldi	r25, 0x00	; 0
    3772:	65 e1       	ldi	r22, 0x15	; 21
    3774:	70 e0       	ldi	r23, 0x00	; 0
    3776:	0e 94 aa 14 	call	0x2954	; 0x2954 <print_num>
	}
	}
	if(time<10)
    377a:	80 91 c0 00 	lds	r24, 0x00C0
    377e:	90 91 c1 00 	lds	r25, 0x00C1
    3782:	8a 30       	cpi	r24, 0x0A	; 10
    3784:	91 05       	cpc	r25, r1
    3786:	0c f0       	brlt	.+2      	; 0x378a <main+0x78a>
    3788:	4c c0       	rjmp	.+152    	; 0x3822 <main+0x822>
	{
	PORTB=0B11111101;
    378a:	38 ba       	out	0x18, r3	; 24
	
	}
	
	
	
	if(time<=0)
    378c:	18 16       	cp	r1, r24
    378e:	19 06       	cpc	r1, r25
    3790:	0c f4       	brge	.+2      	; 0x3794 <main+0x794>
    3792:	47 c0       	rjmp	.+142    	; 0x3822 <main+0x822>
	{
	PORTB=0B11111100;
    3794:	18 bb       	out	0x18, r17	; 24
ks0108ClearScreen();
    3796:	80 e0       	ldi	r24, 0x00	; 0
    3798:	60 e0       	ldi	r22, 0x00	; 0
    379a:	4f e7       	ldi	r20, 0x7F	; 127
    379c:	2f e3       	ldi	r18, 0x3F	; 63
    379e:	00 e0       	ldi	r16, 0x00	; 0
    37a0:	0e 94 5d 0d 	call	0x1aba	; 0x1aba <ks0108FillRect>
ks0108GotoXY(10,30);
    37a4:	8a e0       	ldi	r24, 0x0A	; 10
    37a6:	6e e1       	ldi	r22, 0x1E	; 30
    37a8:	0e 94 44 0a 	call	0x1488	; 0x1488 <ks0108GotoXY>
ks0108Puts_P(PSTR("!!!..Game Over..!!!"));
    37ac:	86 ee       	ldi	r24, 0xE6	; 230
    37ae:	92 e1       	ldi	r25, 0x12	; 18
    37b0:	0e 94 38 0c 	call	0x1870	; 0x1870 <ks0108Puts_P>
    37b4:	c4 01       	movw	r24, r8
    37b6:	01 97       	sbiw	r24, 0x01	; 1
    37b8:	f1 f7       	brne	.-4      	; 0x37b6 <main+0x7b6>
_delay_ms(100);
ks0108ClearScreen();
    37ba:	80 e0       	ldi	r24, 0x00	; 0
    37bc:	60 e0       	ldi	r22, 0x00	; 0
    37be:	4f e7       	ldi	r20, 0x7F	; 127
    37c0:	2f e3       	ldi	r18, 0x3F	; 63
    37c2:	0e 94 5d 0d 	call	0x1aba	; 0x1aba <ks0108FillRect>
//PRINT SCORE
	ks0108GotoXY(15,20);
    37c6:	8f e0       	ldi	r24, 0x0F	; 15
    37c8:	64 e1       	ldi	r22, 0x14	; 20
    37ca:	0e 94 44 0a 	call	0x1488	; 0x1488 <ks0108GotoXY>
	ks0108Puts_P(PSTR("Score -"));
    37ce:	8e ed       	ldi	r24, 0xDE	; 222
    37d0:	92 e1       	ldi	r25, 0x12	; 18
    37d2:	0e 94 38 0c 	call	0x1870	; 0x1870 <ks0108Puts_P>
	ks0108GotoXY(70,20);
    37d6:	86 e4       	ldi	r24, 0x46	; 70
    37d8:	64 e1       	ldi	r22, 0x14	; 20
    37da:	0e 94 44 0a 	call	0x1488	; 0x1488 <ks0108GotoXY>
	itoa(Fscore,a,10);
    37de:	80 91 6f 00 	lds	r24, 0x006F
    37e2:	90 91 70 00 	lds	r25, 0x0070
    37e6:	60 ed       	ldi	r22, 0xD0	; 208
    37e8:	70 e0       	ldi	r23, 0x00	; 0
    37ea:	4a e0       	ldi	r20, 0x0A	; 10
    37ec:	50 e0       	ldi	r21, 0x00	; 0
    37ee:	0e 94 ce 2b 	call	0x579c	; 0x579c <itoa>

	ks0108Puts(a);
    37f2:	80 ed       	ldi	r24, 0xD0	; 208
    37f4:	90 e0       	ldi	r25, 0x00	; 0
    37f6:	0e 94 60 0c 	call	0x18c0	; 0x18c0 <ks0108Puts>
    37fa:	80 e4       	ldi	r24, 0x40	; 64
    37fc:	9f e1       	ldi	r25, 0x1F	; 31
    37fe:	f6 01       	movw	r30, r12
    3800:	31 97       	sbiw	r30, 0x01	; 1
    3802:	f1 f7       	brne	.-4      	; 0x3800 <main+0x800>
		{
			// wait 1/10 ms
			_delay_loop_2(((F_CPU) / 4e3) / 10);
			__ticks --;
    3804:	01 97       	sbiw	r24, 0x01	; 1
		__ticks = 1;
	else if (__tmp > 65535)
	{
		//	__ticks = requested delay in 1/10 ms
		__ticks = (uint16_t) (__ms * 10.0);
		while(__ticks)
    3806:	d9 f7       	brne	.-10     	; 0x37fe <main+0x7fe>
	_delay_ms(800);
	ks0108ClearScreen();
    3808:	80 e0       	ldi	r24, 0x00	; 0
    380a:	60 e0       	ldi	r22, 0x00	; 0
    380c:	4f e7       	ldi	r20, 0x7F	; 127
    380e:	2f e3       	ldi	r18, 0x3F	; 63
    3810:	00 e0       	ldi	r16, 0x00	; 0
    3812:	0e 94 5d 0d 	call	0x1aba	; 0x1aba <ks0108FillRect>
	menu();
    3816:	0e 94 2d 17 	call	0x2e5a	; 0x2e5a <menu>

	level=0;
    381a:	10 92 7a 00 	sts	0x007A, r1
    381e:	10 92 79 00 	sts	0x0079, r1
   

	// printing the count

  // _delay_ms(75);
  test_time++;
    3822:	80 91 9a 00 	lds	r24, 0x009A
    3826:	90 91 9b 00 	lds	r25, 0x009B
    382a:	01 96       	adiw	r24, 0x01	; 1
    382c:	90 93 9b 00 	sts	0x009B, r25
    3830:	80 93 9a 00 	sts	0x009A, r24
	test_time=0;
	d1=0;
	d2=0;
	d3=0;
	
	while(level==1)
    3834:	80 91 79 00 	lds	r24, 0x0079
    3838:	90 91 7a 00 	lds	r25, 0x007A
    383c:	01 97       	sbiw	r24, 0x01	; 1
    383e:	09 f4       	brne	.+2      	; 0x3842 <main+0x842>
    3840:	39 cd       	rjmp	.-1422   	; 0x32b4 <main+0x2b4>
  test_time++;
   //_delay_ms(5);//-4*sqrt((k1^2)+(k2^2)));
	}//
}// 
// the 2nd level
if(level==2)
    3842:	80 91 79 00 	lds	r24, 0x0079
    3846:	90 91 7a 00 	lds	r25, 0x007A
    384a:	02 97       	sbiw	r24, 0x02	; 2
    384c:	09 f0       	breq	.+2      	; 0x3850 <main+0x850>
    384e:	2f c6       	rjmp	.+3166   	; 0x44ae <main+0x14ae>
{// displaying the messages
ks0108ClearScreen();
    3850:	80 e0       	ldi	r24, 0x00	; 0
    3852:	60 e0       	ldi	r22, 0x00	; 0
    3854:	4f e7       	ldi	r20, 0x7F	; 127
    3856:	2f e3       	ldi	r18, 0x3F	; 63
    3858:	00 e0       	ldi	r16, 0x00	; 0
    385a:	0e 94 5d 0d 	call	0x1aba	; 0x1aba <ks0108FillRect>

ks0108DrawRect(30,15,61,20,BLACK);
    385e:	8e e1       	ldi	r24, 0x1E	; 30
    3860:	6f e0       	ldi	r22, 0x0F	; 15
    3862:	4d e3       	ldi	r20, 0x3D	; 61
    3864:	24 e1       	ldi	r18, 0x14	; 20
    3866:	0f ef       	ldi	r16, 0xFF	; 255
    3868:	0e 94 f6 0e 	call	0x1dec	; 0x1dec <ks0108DrawRect>
ks0108DrawRect(31,16,59,18,BLACK);
    386c:	8f e1       	ldi	r24, 0x1F	; 31
    386e:	60 e1       	ldi	r22, 0x10	; 16
    3870:	4b e3       	ldi	r20, 0x3B	; 59
    3872:	22 e1       	ldi	r18, 0x12	; 18
    3874:	0e 94 f6 0e 	call	0x1dec	; 0x1dec <ks0108DrawRect>
ks0108GotoXY(35,20);
    3878:	83 e2       	ldi	r24, 0x23	; 35
    387a:	64 e1       	ldi	r22, 0x14	; 20
    387c:	0e 94 44 0a 	call	0x1488	; 0x1488 <ks0108GotoXY>

	ks0108Puts_P(PSTR("LEVEL 2"));
    3880:	86 ed       	ldi	r24, 0xD6	; 214
    3882:	92 e1       	ldi	r25, 0x12	; 18
    3884:	0e 94 38 0c 	call	0x1870	; 0x1870 <ks0108Puts_P>
    3888:	80 e5       	ldi	r24, 0x50	; 80
    388a:	e8 2e       	mov	r14, r24
    388c:	83 ec       	ldi	r24, 0xC3	; 195
    388e:	f8 2e       	mov	r15, r24
    3890:	c7 01       	movw	r24, r14
    3892:	01 97       	sbiw	r24, 0x01	; 1
    3894:	f1 f7       	brne	.-4      	; 0x3892 <main+0x892>
	_delay_ms(200);
ks0108ClearScreen();
    3896:	80 e0       	ldi	r24, 0x00	; 0
    3898:	60 e0       	ldi	r22, 0x00	; 0
    389a:	4f e7       	ldi	r20, 0x7F	; 127
    389c:	2f e3       	ldi	r18, 0x3F	; 63
    389e:	00 e0       	ldi	r16, 0x00	; 0
    38a0:	0e 94 5d 0d 	call	0x1aba	; 0x1aba <ks0108FillRect>

	ks0108GotoXY(60,20);
    38a4:	8c e3       	ldi	r24, 0x3C	; 60
    38a6:	64 e1       	ldi	r22, 0x14	; 20
    38a8:	0e 94 44 0a 	call	0x1488	; 0x1488 <ks0108GotoXY>
ks0108Puts_P(PSTR("3"));
    38ac:	84 ed       	ldi	r24, 0xD4	; 212
    38ae:	92 e1       	ldi	r25, 0x12	; 18
    38b0:	0e 94 38 0c 	call	0x1870	; 0x1870 <ks0108Puts_P>
    38b4:	c7 01       	movw	r24, r14
    38b6:	01 97       	sbiw	r24, 0x01	; 1
    38b8:	f1 f7       	brne	.-4      	; 0x38b6 <main+0x8b6>
	_delay_ms(200);
ks0108ClearScreen();
    38ba:	80 e0       	ldi	r24, 0x00	; 0
    38bc:	60 e0       	ldi	r22, 0x00	; 0
    38be:	4f e7       	ldi	r20, 0x7F	; 127
    38c0:	2f e3       	ldi	r18, 0x3F	; 63
    38c2:	0e 94 5d 0d 	call	0x1aba	; 0x1aba <ks0108FillRect>
	ks0108GotoXY(60,20);
    38c6:	8c e3       	ldi	r24, 0x3C	; 60
    38c8:	64 e1       	ldi	r22, 0x14	; 20
    38ca:	0e 94 44 0a 	call	0x1488	; 0x1488 <ks0108GotoXY>
ks0108Puts_P(PSTR("2"));
    38ce:	82 ed       	ldi	r24, 0xD2	; 210
    38d0:	92 e1       	ldi	r25, 0x12	; 18
    38d2:	0e 94 38 0c 	call	0x1870	; 0x1870 <ks0108Puts_P>
    38d6:	c7 01       	movw	r24, r14
    38d8:	01 97       	sbiw	r24, 0x01	; 1
    38da:	f1 f7       	brne	.-4      	; 0x38d8 <main+0x8d8>
	_delay_ms(200);
ks0108ClearScreen();
    38dc:	80 e0       	ldi	r24, 0x00	; 0
    38de:	60 e0       	ldi	r22, 0x00	; 0
    38e0:	4f e7       	ldi	r20, 0x7F	; 127
    38e2:	2f e3       	ldi	r18, 0x3F	; 63
    38e4:	0e 94 5d 0d 	call	0x1aba	; 0x1aba <ks0108FillRect>
	ks0108GotoXY(60,20);
    38e8:	8c e3       	ldi	r24, 0x3C	; 60
    38ea:	64 e1       	ldi	r22, 0x14	; 20
    38ec:	0e 94 44 0a 	call	0x1488	; 0x1488 <ks0108GotoXY>
ks0108Puts_P(PSTR("1"));
    38f0:	80 ed       	ldi	r24, 0xD0	; 208
    38f2:	92 e1       	ldi	r25, 0x12	; 18
    38f4:	0e 94 38 0c 	call	0x1870	; 0x1870 <ks0108Puts_P>
    38f8:	c7 01       	movw	r24, r14
    38fa:	01 97       	sbiw	r24, 0x01	; 1
    38fc:	f1 f7       	brne	.-4      	; 0x38fa <main+0x8fa>
	_delay_ms(200);
ks0108ClearScreen();
    38fe:	80 e0       	ldi	r24, 0x00	; 0
    3900:	60 e0       	ldi	r22, 0x00	; 0
    3902:	4f e7       	ldi	r20, 0x7F	; 127
    3904:	2f e3       	ldi	r18, 0x3F	; 63
    3906:	0e 94 5d 0d 	call	0x1aba	; 0x1aba <ks0108FillRect>
// printing the image
LoadBitmap1(IMAGE2);
    390a:	83 e8       	ldi	r24, 0x83	; 131
    390c:	94 e0       	ldi	r25, 0x04	; 4
    390e:	0e 94 5e 10 	call	0x20bc	; 0x20bc <LoadBitmap1>

// printing L:2
    CrHBlock(120,19,5);
    3912:	88 e7       	ldi	r24, 0x78	; 120
    3914:	90 e0       	ldi	r25, 0x00	; 0
    3916:	63 e1       	ldi	r22, 0x13	; 19
    3918:	70 e0       	ldi	r23, 0x00	; 0
    391a:	45 e0       	ldi	r20, 0x05	; 5
    391c:	50 e0       	ldi	r21, 0x00	; 0
    391e:	0e 94 52 14 	call	0x28a4	; 0x28a4 <CrHBlock>
	CrVBlock(124,17,3);
    3922:	8c e7       	ldi	r24, 0x7C	; 124
    3924:	90 e0       	ldi	r25, 0x00	; 0
    3926:	61 e1       	ldi	r22, 0x11	; 17
    3928:	70 e0       	ldi	r23, 0x00	; 0
    392a:	43 e0       	ldi	r20, 0x03	; 3
    392c:	50 e0       	ldi	r21, 0x00	; 0
    392e:	0e 94 34 14 	call	0x2868	; 0x2868 <CrVBlock>
	CrVBlock(121,15,1);
    3932:	89 e7       	ldi	r24, 0x79	; 121
    3934:	90 e0       	ldi	r25, 0x00	; 0
    3936:	6f e0       	ldi	r22, 0x0F	; 15
    3938:	70 e0       	ldi	r23, 0x00	; 0
    393a:	41 e0       	ldi	r20, 0x01	; 1
    393c:	50 e0       	ldi	r21, 0x00	; 0
    393e:	0e 94 34 14 	call	0x2868	; 0x2868 <CrVBlock>
	CrVBlock(123,15,1);
    3942:	8b e7       	ldi	r24, 0x7B	; 123
    3944:	90 e0       	ldi	r25, 0x00	; 0
    3946:	6f e0       	ldi	r22, 0x0F	; 15
    3948:	70 e0       	ldi	r23, 0x00	; 0
    394a:	41 e0       	ldi	r20, 0x01	; 1
    394c:	50 e0       	ldi	r21, 0x00	; 0
    394e:	0e 94 34 14 	call	0x2868	; 0x2868 <CrVBlock>
    print_num(120,10,2);
    3952:	88 e7       	ldi	r24, 0x78	; 120
    3954:	90 e0       	ldi	r25, 0x00	; 0
    3956:	6a e0       	ldi	r22, 0x0A	; 10
    3958:	70 e0       	ldi	r23, 0x00	; 0
    395a:	42 e0       	ldi	r20, 0x02	; 2
    395c:	50 e0       	ldi	r21, 0x00	; 0
    395e:	0e 94 aa 14 	call	0x2954	; 0x2954 <print_num>


ks0108FillRect(70,12,2,40,BLACK);
    3962:	86 e4       	ldi	r24, 0x46	; 70
    3964:	6c e0       	ldi	r22, 0x0C	; 12
    3966:	42 e0       	ldi	r20, 0x02	; 2
    3968:	28 e2       	ldi	r18, 0x28	; 40
    396a:	0f ef       	ldi	r16, 0xFF	; 255
    396c:	0e 94 5d 0d 	call	0x1aba	; 0x1aba <ks0108FillRect>
	
	//print key of gate
	create_ball_initially(38,36);
    3970:	86 e2       	ldi	r24, 0x26	; 38
    3972:	90 e0       	ldi	r25, 0x00	; 0
    3974:	64 e2       	ldi	r22, 0x24	; 36
    3976:	70 e0       	ldi	r23, 0x00	; 0
    3978:	0e 94 c2 10 	call	0x2184	; 0x2184 <create_ball_initially>
	xfood=xpos;
    397c:	80 91 8b 00 	lds	r24, 0x008B
    3980:	80 93 90 00 	sts	0x0090, r24
    3984:	10 92 91 00 	sts	0x0091, r1
	yfood=ypos;
    3988:	80 91 cf 00 	lds	r24, 0x00CF
    398c:	80 93 aa 00 	sts	0x00AA, r24
    3990:	10 92 ab 00 	sts	0x00AB, r1

// create ball initially
// displaying the ball 
	create_ball_initially(3,5);
    3994:	83 e0       	ldi	r24, 0x03	; 3
    3996:	90 e0       	ldi	r25, 0x00	; 0
    3998:	65 e0       	ldi	r22, 0x05	; 5
    399a:	70 e0       	ldi	r23, 0x00	; 0
    399c:	0e 94 c2 10 	call	0x2184	; 0x2184 <create_ball_initially>
    39a0:	08 ea       	ldi	r16, 0xA8	; 168
    39a2:	11 e6       	ldi	r17, 0x61	; 97
    39a4:	c8 01       	movw	r24, r16
    39a6:	01 97       	sbiw	r24, 0x01	; 1
    39a8:	f1 f7       	brne	.-4      	; 0x39a6 <main+0x9a6>
	_delay_ms(100);
	clear_ball();
    39aa:	0e 94 ea 10 	call	0x21d4	; 0x21d4 <clear_ball>
    39ae:	c8 01       	movw	r24, r16
    39b0:	01 97       	sbiw	r24, 0x01	; 1
    39b2:	f1 f7       	brne	.-4      	; 0x39b0 <main+0x9b0>
	_delay_ms(100);
	create_ball_initially(3,5);
    39b4:	83 e0       	ldi	r24, 0x03	; 3
    39b6:	90 e0       	ldi	r25, 0x00	; 0
    39b8:	65 e0       	ldi	r22, 0x05	; 5
    39ba:	70 e0       	ldi	r23, 0x00	; 0
    39bc:	0e 94 c2 10 	call	0x2184	; 0x2184 <create_ball_initially>

event=0;
    39c0:	10 92 bf 00 	sts	0x00BF, r1
    39c4:	10 92 be 00 	sts	0x00BE, r1
	time=100;
    39c8:	84 e6       	ldi	r24, 0x64	; 100
    39ca:	90 e0       	ldi	r25, 0x00	; 0
    39cc:	90 93 c1 00 	sts	0x00C1, r25
    39d0:	80 93 c0 00 	sts	0x00C0, r24
	test_time=0;
    39d4:	10 92 9b 00 	sts	0x009B, r1
    39d8:	10 92 9a 00 	sts	0x009A, r1
	d1=0;
    39dc:	10 92 95 00 	sts	0x0095, r1
    39e0:	10 92 94 00 	sts	0x0094, r1
	d2=0;
    39e4:	10 92 b7 00 	sts	0x00B7, r1
    39e8:	10 92 b6 00 	sts	0x00B6, r1
	d3=0;
    39ec:	10 92 e1 00 	sts	0x00E1, r1
    39f0:	10 92 e0 00 	sts	0x00E0, r1
    39f4:	c6 ea       	ldi	r28, 0xA6	; 166
    39f6:	de e0       	ldi	r29, 0x0E	; 14
// else if event=1

// event-1
  if(xpos-1>=25 && xpos -1<=35 && ypos+3>60)
{
for(i=20;i<=54;i++)
    39f8:	04 e1       	ldi	r16, 0x14	; 20
    39fa:	80 2e       	mov	r8, r16
    39fc:	91 2c       	mov	r9, r1
	ErHBlock(25,i-1,10);

	}
clear_ball();
	
	for(i=25,j=61;j>=10;j--)
    39fe:	1d e3       	ldi	r17, 0x3D	; 61
    3a00:	61 2e       	mov	r6, r17
    3a02:	71 2c       	mov	r7, r1
    3a04:	b0 e5       	ldi	r27, 0x50	; 80
    3a06:	4b 2e       	mov	r4, r27
    3a08:	b3 ec       	ldi	r27, 0xC3	; 195
    3a0a:	5b 2e       	mov	r5, r27
	for(j=3;j<13;j++)
	{
	CrVBlock(32,j,10);
	ErVBlock(32,j-1,1);
	}
	event=1;
    3a0c:	a1 e0       	ldi	r26, 0x01	; 1
    3a0e:	2a 2e       	mov	r2, r26
    3a10:	31 2c       	mov	r3, r1
 if((xpos==xfood||xpos+1==xfood||xpos+2==xfood)&& (ypos==yfood||ypos+1==yfood||ypos+2==yfood) )//or they are in surroundings)
     
{clear_ball();
create_ball_initially(38,36);
event=2;
	 for(i=32,j=33;i>12,j<53;i--,j++)
    3a12:	f1 e2       	ldi	r31, 0x21	; 33
    3a14:	af 2e       	mov	r10, r31
    3a16:	b1 2c       	mov	r11, r1
    3a18:	43 c5       	rjmp	.+2694   	; 0x44a0 <main+0x14a0>
	d1=0;
	d2=0;
	d3=0;

while(level==2)
{	check_switch();
    3a1a:	0e 94 be 16 	call	0x2d7c	; 0x2d7c <check_switch>

  	check=surroundings_level2();
    3a1e:	0e 94 72 12 	call	0x24e4	; 0x24e4 <surroundings_level2>
    3a22:	90 93 a4 00 	sts	0x00A4, r25
    3a26:	80 93 a3 00 	sts	0x00A3, r24
  accelerate();
    3a2a:	0e 94 f2 15 	call	0x2be4	; 0x2be4 <accelerate>
    3a2e:	ce 01       	movw	r24, r28
    3a30:	01 97       	sbiw	r24, 0x01	; 1
    3a32:	f1 f7       	brne	.-4      	; 0x3a30 <main+0xa30>
   _delay_ms(15);
   }

// moving the ball

 if(y>365 && check%1000>=100 )// moving the ball right with no rebounding conditions
    3a34:	20 91 c2 00 	lds	r18, 0x00C2
    3a38:	30 91 c3 00 	lds	r19, 0x00C3
    3a3c:	41 e0       	ldi	r20, 0x01	; 1
    3a3e:	2e 36       	cpi	r18, 0x6E	; 110
    3a40:	34 07       	cpc	r19, r20
    3a42:	4c f1       	brlt	.+82     	; 0x3a96 <main+0xa96>
    3a44:	80 91 a3 00 	lds	r24, 0x00A3
    3a48:	90 91 a4 00 	lds	r25, 0x00A4
    3a4c:	68 ee       	ldi	r22, 0xE8	; 232
    3a4e:	73 e0       	ldi	r23, 0x03	; 3
    3a50:	0e 94 a7 2b 	call	0x574e	; 0x574e <__divmodhi4>
    3a54:	84 36       	cpi	r24, 0x64	; 100
    3a56:	91 05       	cpc	r25, r1
    3a58:	f4 f0       	brlt	.+60     	; 0x3a96 <main+0xa96>
  {
  
  if(event<2 &&xpos>=67)
    3a5a:	20 91 be 00 	lds	r18, 0x00BE
    3a5e:	30 91 bf 00 	lds	r19, 0x00BF
    3a62:	22 30       	cpi	r18, 0x02	; 2
    3a64:	31 05       	cpc	r19, r1
    3a66:	44 f4       	brge	.+16     	; 0x3a78 <main+0xa78>
    3a68:	80 91 8b 00 	lds	r24, 0x008B
    3a6c:	83 34       	cpi	r24, 0x43	; 67
    3a6e:	08 f0       	brcs	.+2      	; 0x3a72 <main+0xa72>
    3a70:	5d c0       	rjmp	.+186    	; 0x3b2c <main+0xb2c>
  {
  move_ball('s');
  }
  else if(event>=1 && (xpos+3==27 && (ypos>=1 && ypos<=10)))
    3a72:	12 16       	cp	r1, r18
    3a74:	13 06       	cpc	r1, r19
    3a76:	54 f4       	brge	.+20     	; 0x3a8c <main+0xa8c>
    3a78:	80 91 8b 00 	lds	r24, 0x008B
    3a7c:	88 31       	cpi	r24, 0x18	; 24
    3a7e:	31 f4       	brne	.+12     	; 0x3a8c <main+0xa8c>
    3a80:	80 91 cf 00 	lds	r24, 0x00CF
    3a84:	81 50       	subi	r24, 0x01	; 1
    3a86:	8a 30       	cpi	r24, 0x0A	; 10
    3a88:	08 f4       	brcc	.+2      	; 0x3a8c <main+0xa8c>
    3a8a:	50 c0       	rjmp	.+160    	; 0x3b2c <main+0xb2c>
  }
  else if(event>=1 && (xpos+3==32 && (ypos>=16 && ypos<=12)))
  {
  move_ball('s');
  }
  else if(xpos+3==43 &&ypos<=k && ypos>=k-7)
    3a8c:	80 91 8b 00 	lds	r24, 0x008B
  {
  move_ball('r');
  }
  else
  {move_ball('r');
    3a90:	82 e7       	ldi	r24, 0x72	; 114
    3a92:	90 e0       	ldi	r25, 0x00	; 0
    3a94:	50 c0       	rjmp	.+160    	; 0x3b36 <main+0xb36>
  }
  
  }
  
  // moving the ball left with no rebounding conditions
  else if(y<350 && check %10000>=1000 && xpos>=0)
    3a96:	2e 55       	subi	r18, 0x5E	; 94
    3a98:	31 40       	sbci	r19, 0x01	; 1
    3a9a:	0c f0       	brlt	.+2      	; 0x3a9e <main+0xa9e>
    3a9c:	4e c0       	rjmp	.+156    	; 0x3b3a <main+0xb3a>
    3a9e:	80 91 a3 00 	lds	r24, 0x00A3
    3aa2:	90 91 a4 00 	lds	r25, 0x00A4
    3aa6:	60 e1       	ldi	r22, 0x10	; 16
    3aa8:	77 e2       	ldi	r23, 0x27	; 39
    3aaa:	0e 94 a7 2b 	call	0x574e	; 0x574e <__divmodhi4>
    3aae:	88 5e       	subi	r24, 0xE8	; 232
    3ab0:	93 40       	sbci	r25, 0x03	; 3
    3ab2:	0c f4       	brge	.+2      	; 0x3ab6 <main+0xab6>
    3ab4:	42 c0       	rjmp	.+132    	; 0x3b3a <main+0xb3a>
  {

  if(event>=1 && (xpos-1==31 &&(ypos<=3 && ypos>=1)))
    3ab6:	80 91 be 00 	lds	r24, 0x00BE
    3aba:	90 91 bf 00 	lds	r25, 0x00BF
    3abe:	18 16       	cp	r1, r24
    3ac0:	19 06       	cpc	r1, r25
    3ac2:	0c f5       	brge	.+66     	; 0x3b06 <main+0xb06>
    3ac4:	80 91 8b 00 	lds	r24, 0x008B
    3ac8:	80 32       	cpi	r24, 0x20	; 32
    3aca:	31 f4       	brne	.+12     	; 0x3ad8 <main+0xad8>
    3acc:	80 91 cf 00 	lds	r24, 0x00CF
    3ad0:	81 50       	subi	r24, 0x01	; 1
    3ad2:	83 30       	cpi	r24, 0x03	; 3
    3ad4:	58 f4       	brcc	.+22     	; 0x3aec <main+0xaec>
    3ad6:	2a c0       	rjmp	.+84     	; 0x3b2c <main+0xb2c>
  {
  move_ball('s');
  }
  else if(event>=1 && (xpos-1==27 &&(ypos<=9 && ypos>=4)))
    3ad8:	8c 31       	cpi	r24, 0x1C	; 28
    3ada:	31 f4       	brne	.+12     	; 0x3ae8 <main+0xae8>
    3adc:	80 91 cf 00 	lds	r24, 0x00CF
    3ae0:	84 50       	subi	r24, 0x04	; 4
    3ae2:	86 30       	cpi	r24, 0x06	; 6
    3ae4:	80 f4       	brcc	.+32     	; 0x3b06 <main+0xb06>
    3ae6:	22 c0       	rjmp	.+68     	; 0x3b2c <main+0xb2c>
  {
  move_ball('s');
  }
  else if(event>=1 && (xpos-1==31 &&(ypos<=12 && ypos>=10)))
    3ae8:	80 32       	cpi	r24, 0x20	; 32
    3aea:	31 f4       	brne	.+12     	; 0x3af8 <main+0xaf8>
    3aec:	80 91 cf 00 	lds	r24, 0x00CF
    3af0:	8a 50       	subi	r24, 0x0A	; 10
    3af2:	83 30       	cpi	r24, 0x03	; 3
    3af4:	40 f4       	brcc	.+16     	; 0x3b06 <main+0xb06>
    3af6:	1a c0       	rjmp	.+52     	; 0x3b2c <main+0xb2c>
  {
  move_ball('s');
  }
  else if(event>=1 && (xpos-1==32 &&(ypos<=16 && ypos>=12)))
    3af8:	81 32       	cpi	r24, 0x21	; 33
    3afa:	29 f4       	brne	.+10     	; 0x3b06 <main+0xb06>
    3afc:	80 91 cf 00 	lds	r24, 0x00CF
    3b00:	8c 50       	subi	r24, 0x0C	; 12
    3b02:	85 30       	cpi	r24, 0x05	; 5
    3b04:	98 f0       	brcs	.+38     	; 0x3b2c <main+0xb2c>
  {
  move_ball('s');
  }
  else if(xpos-1==43 && ypos<=k && ypos>=k-7)
    3b06:	80 91 8b 00 	lds	r24, 0x008B
    3b0a:	8c 32       	cpi	r24, 0x2C	; 44
    3b0c:	91 f4       	brne	.+36     	; 0x3b32 <main+0xb32>
    3b0e:	80 91 cf 00 	lds	r24, 0x00CF
    3b12:	90 e0       	ldi	r25, 0x00	; 0
    3b14:	20 91 96 00 	lds	r18, 0x0096
    3b18:	30 91 97 00 	lds	r19, 0x0097
    3b1c:	28 17       	cp	r18, r24
    3b1e:	39 07       	cpc	r19, r25
    3b20:	44 f0       	brlt	.+16     	; 0x3b32 <main+0xb32>
    3b22:	27 50       	subi	r18, 0x07	; 7
    3b24:	30 40       	sbci	r19, 0x00	; 0
    3b26:	82 17       	cp	r24, r18
    3b28:	93 07       	cpc	r25, r19
    3b2a:	1c f0       	brlt	.+6      	; 0x3b32 <main+0xb32>
  {
  move_ball('s');
    3b2c:	83 e7       	ldi	r24, 0x73	; 115
    3b2e:	90 e0       	ldi	r25, 0x00	; 0
    3b30:	02 c0       	rjmp	.+4      	; 0x3b36 <main+0xb36>
  }
  else
  {
  move_ball('l');
    3b32:	8c e6       	ldi	r24, 0x6C	; 108
    3b34:	90 e0       	ldi	r25, 0x00	; 0
    3b36:	0e 94 38 11 	call	0x2270	; 0x2270 <move_ball>

  }
  
 
  // moving the ball upwards with no rebounding conditions
  if(x>365 && check%10>=1)
    3b3a:	20 91 8e 00 	lds	r18, 0x008E
    3b3e:	30 91 8f 00 	lds	r19, 0x008F
    3b42:	41 e0       	ldi	r20, 0x01	; 1
    3b44:	2e 36       	cpi	r18, 0x6E	; 110
    3b46:	34 07       	cpc	r19, r20
    3b48:	f4 f0       	brlt	.+60     	; 0x3b86 <main+0xb86>
    3b4a:	80 91 a3 00 	lds	r24, 0x00A3
    3b4e:	90 91 a4 00 	lds	r25, 0x00A4
    3b52:	6a e0       	ldi	r22, 0x0A	; 10
    3b54:	70 e0       	ldi	r23, 0x00	; 0
    3b56:	0e 94 a7 2b 	call	0x574e	; 0x574e <__divmodhi4>
    3b5a:	18 16       	cp	r1, r24
    3b5c:	19 06       	cpc	r1, r25
    3b5e:	9c f4       	brge	.+38     	; 0x3b86 <main+0xb86>
  {
  if(event>=1 && ((ypos-1==3||ypos-1==3)&&(xpos<=32 &&xpos>=27)))
    3b60:	80 91 be 00 	lds	r24, 0x00BE
    3b64:	90 91 bf 00 	lds	r25, 0x00BF
    3b68:	18 16       	cp	r1, r24
    3b6a:	19 06       	cpc	r1, r25
    3b6c:	4c f4       	brge	.+18     	; 0x3b80 <main+0xb80>
    3b6e:	80 91 cf 00 	lds	r24, 0x00CF
    3b72:	84 30       	cpi	r24, 0x04	; 4
    3b74:	29 f4       	brne	.+10     	; 0x3b80 <main+0xb80>
    3b76:	80 91 8b 00 	lds	r24, 0x008B
    3b7a:	8b 51       	subi	r24, 0x1B	; 27
    3b7c:	86 30       	cpi	r24, 0x06	; 6
    3b7e:	20 f1       	brcs	.+72     	; 0x3bc8 <main+0xbc8>
  move_ball('s');
  }
 
  else
  {
  move_ball('u');
    3b80:	85 e7       	ldi	r24, 0x75	; 117
    3b82:	90 e0       	ldi	r25, 0x00	; 0
    3b84:	26 c0       	rjmp	.+76     	; 0x3bd2 <main+0xbd2>
 
  
 
 
  // moving ball down wards
  else if(x<350 && check %100 >=10 && ypos<=62)
    3b86:	2e 55       	subi	r18, 0x5E	; 94
    3b88:	31 40       	sbci	r19, 0x01	; 1
    3b8a:	2c f5       	brge	.+74     	; 0x3bd6 <main+0xbd6>
    3b8c:	80 91 a3 00 	lds	r24, 0x00A3
    3b90:	90 91 a4 00 	lds	r25, 0x00A4
    3b94:	64 e6       	ldi	r22, 0x64	; 100
    3b96:	70 e0       	ldi	r23, 0x00	; 0
    3b98:	0e 94 a7 2b 	call	0x574e	; 0x574e <__divmodhi4>
    3b9c:	0a 97       	sbiw	r24, 0x0a	; 10
    3b9e:	dc f0       	brlt	.+54     	; 0x3bd6 <main+0xbd6>
    3ba0:	20 91 cf 00 	lds	r18, 0x00CF
    3ba4:	2f 33       	cpi	r18, 0x3F	; 63
    3ba6:	b8 f4       	brcc	.+46     	; 0x3bd6 <main+0xbd6>
  {
  if(event>=1&& ((ypos+3==3||ypos+3==12)&&(xpos<=32&&xpos>=26)))
    3ba8:	80 91 be 00 	lds	r24, 0x00BE
    3bac:	90 91 bf 00 	lds	r25, 0x00BF
    3bb0:	18 16       	cp	r1, r24
    3bb2:	19 06       	cpc	r1, r25
    3bb4:	64 f4       	brge	.+24     	; 0x3bce <main+0xbce>
    3bb6:	22 23       	and	r18, r18
    3bb8:	11 f0       	breq	.+4      	; 0x3bbe <main+0xbbe>
    3bba:	29 30       	cpi	r18, 0x09	; 9
    3bbc:	41 f4       	brne	.+16     	; 0x3bce <main+0xbce>
    3bbe:	80 91 8b 00 	lds	r24, 0x008B
    3bc2:	8a 51       	subi	r24, 0x1A	; 26
    3bc4:	87 30       	cpi	r24, 0x07	; 7
    3bc6:	18 f4       	brcc	.+6      	; 0x3bce <main+0xbce>
  {
  move_ball('s');
    3bc8:	83 e7       	ldi	r24, 0x73	; 115
    3bca:	90 e0       	ldi	r25, 0x00	; 0
    3bcc:	02 c0       	rjmp	.+4      	; 0x3bd2 <main+0xbd2>
  }
  else
  {move_ball('d');
    3bce:	84 e6       	ldi	r24, 0x64	; 100
    3bd0:	90 e0       	ldi	r25, 0x00	; 0
    3bd2:	0e 94 38 11 	call	0x2270	; 0x2270 <move_ball>
  }

// else if event=1

// event-1
  if(xpos-1>=25 && xpos -1<=35 && ypos+3>60)
    3bd6:	80 91 8b 00 	lds	r24, 0x008B
    3bda:	8a 51       	subi	r24, 0x1A	; 26
    3bdc:	8b 30       	cpi	r24, 0x0B	; 11
    3bde:	08 f0       	brcs	.+2      	; 0x3be2 <main+0xbe2>
    3be0:	5c c1       	rjmp	.+696    	; 0x3e9a <main+0xe9a>
    3be2:	80 91 cf 00 	lds	r24, 0x00CF
    3be6:	90 e0       	ldi	r25, 0x00	; 0
    3be8:	ca 97       	sbiw	r24, 0x3a	; 58
    3bea:	0c f4       	brge	.+2      	; 0x3bee <main+0xbee>
    3bec:	56 c1       	rjmp	.+684    	; 0x3e9a <main+0xe9a>
{
for(i=20;i<=54;i++)
    3bee:	90 92 a2 00 	sts	0x00A2, r9
    3bf2:	80 92 a1 00 	sts	0x00A1, r8
    3bf6:	1b c0       	rjmp	.+54     	; 0x3c2e <main+0xc2e>
	{
	CrHBlock(25,i,10);
    3bf8:	89 e1       	ldi	r24, 0x19	; 25
    3bfa:	90 e0       	ldi	r25, 0x00	; 0
    3bfc:	4a e0       	ldi	r20, 0x0A	; 10
    3bfe:	50 e0       	ldi	r21, 0x00	; 0
    3c00:	0e 94 52 14 	call	0x28a4	; 0x28a4 <CrHBlock>
	ErHBlock(25,i-1,10);
    3c04:	60 91 a1 00 	lds	r22, 0x00A1
    3c08:	70 91 a2 00 	lds	r23, 0x00A2
    3c0c:	61 50       	subi	r22, 0x01	; 1
    3c0e:	70 40       	sbci	r23, 0x00	; 0
    3c10:	89 e1       	ldi	r24, 0x19	; 25
    3c12:	90 e0       	ldi	r25, 0x00	; 0
    3c14:	4a e0       	ldi	r20, 0x0A	; 10
    3c16:	50 e0       	ldi	r21, 0x00	; 0
    3c18:	0e 94 8d 14 	call	0x291a	; 0x291a <ErHBlock>
// else if event=1

// event-1
  if(xpos-1>=25 && xpos -1<=35 && ypos+3>60)
{
for(i=20;i<=54;i++)
    3c1c:	80 91 a1 00 	lds	r24, 0x00A1
    3c20:	90 91 a2 00 	lds	r25, 0x00A2
    3c24:	01 96       	adiw	r24, 0x01	; 1
    3c26:	90 93 a2 00 	sts	0x00A2, r25
    3c2a:	80 93 a1 00 	sts	0x00A1, r24
    3c2e:	60 91 a1 00 	lds	r22, 0x00A1
    3c32:	70 91 a2 00 	lds	r23, 0x00A2
    3c36:	67 33       	cpi	r22, 0x37	; 55
    3c38:	71 05       	cpc	r23, r1
    3c3a:	f4 f2       	brlt	.-68     	; 0x3bf8 <main+0xbf8>
	{
	CrHBlock(25,i,10);
	ErHBlock(25,i-1,10);

	}
clear_ball();
    3c3c:	0e 94 ea 10 	call	0x21d4	; 0x21d4 <clear_ball>
	
	for(i=25,j=61;j>=10;j--)
    3c40:	89 e1       	ldi	r24, 0x19	; 25
    3c42:	90 e0       	ldi	r25, 0x00	; 0
    3c44:	90 93 a2 00 	sts	0x00A2, r25
    3c48:	80 93 a1 00 	sts	0x00A1, r24
    3c4c:	70 92 8d 00 	sts	0x008D, r7
    3c50:	60 92 8c 00 	sts	0x008C, r6
    3c54:	8d c0       	rjmp	.+282    	; 0x3d70 <main+0xd70>
	{

	ErHBlock(i,j-5,10);
    3c56:	65 50       	subi	r22, 0x05	; 5
    3c58:	70 40       	sbci	r23, 0x00	; 0
    3c5a:	80 91 a1 00 	lds	r24, 0x00A1
    3c5e:	90 91 a2 00 	lds	r25, 0x00A2
    3c62:	4a e0       	ldi	r20, 0x0A	; 10
    3c64:	50 e0       	ldi	r21, 0x00	; 0
    3c66:	0e 94 8d 14 	call	0x291a	; 0x291a <ErHBlock>
	CrHBlock(i,j-6,10);
    3c6a:	60 91 8c 00 	lds	r22, 0x008C
    3c6e:	70 91 8d 00 	lds	r23, 0x008D
    3c72:	66 50       	subi	r22, 0x06	; 6
    3c74:	70 40       	sbci	r23, 0x00	; 0
    3c76:	80 91 a1 00 	lds	r24, 0x00A1
    3c7a:	90 91 a2 00 	lds	r25, 0x00A2
    3c7e:	4a e0       	ldi	r20, 0x0A	; 10
    3c80:	50 e0       	ldi	r21, 0x00	; 0
    3c82:	0e 94 52 14 	call	0x28a4	; 0x28a4 <CrHBlock>
	ErVBlock(i,j-5,5);
    3c86:	60 91 8c 00 	lds	r22, 0x008C
    3c8a:	70 91 8d 00 	lds	r23, 0x008D
    3c8e:	65 50       	subi	r22, 0x05	; 5
    3c90:	70 40       	sbci	r23, 0x00	; 0
    3c92:	80 91 a1 00 	lds	r24, 0x00A1
    3c96:	90 91 a2 00 	lds	r25, 0x00A2
    3c9a:	45 e0       	ldi	r20, 0x05	; 5
    3c9c:	50 e0       	ldi	r21, 0x00	; 0
    3c9e:	0e 94 6f 14 	call	0x28de	; 0x28de <ErVBlock>
	CrVBlock(i,j-6,5);
    3ca2:	60 91 8c 00 	lds	r22, 0x008C
    3ca6:	70 91 8d 00 	lds	r23, 0x008D
    3caa:	66 50       	subi	r22, 0x06	; 6
    3cac:	70 40       	sbci	r23, 0x00	; 0
    3cae:	80 91 a1 00 	lds	r24, 0x00A1
    3cb2:	90 91 a2 00 	lds	r25, 0x00A2
    3cb6:	45 e0       	ldi	r20, 0x05	; 5
    3cb8:	50 e0       	ldi	r21, 0x00	; 0
    3cba:	0e 94 34 14 	call	0x2868	; 0x2868 <CrVBlock>
	ErVBlock(i+9,j-5,5);
    3cbe:	80 91 a1 00 	lds	r24, 0x00A1
    3cc2:	90 91 a2 00 	lds	r25, 0x00A2
    3cc6:	60 91 8c 00 	lds	r22, 0x008C
    3cca:	70 91 8d 00 	lds	r23, 0x008D
    3cce:	65 50       	subi	r22, 0x05	; 5
    3cd0:	70 40       	sbci	r23, 0x00	; 0
    3cd2:	09 96       	adiw	r24, 0x09	; 9
    3cd4:	45 e0       	ldi	r20, 0x05	; 5
    3cd6:	50 e0       	ldi	r21, 0x00	; 0
    3cd8:	0e 94 6f 14 	call	0x28de	; 0x28de <ErVBlock>
	CrVBlock(i+9,j-6,5);
    3cdc:	80 91 a1 00 	lds	r24, 0x00A1
    3ce0:	90 91 a2 00 	lds	r25, 0x00A2
    3ce4:	60 91 8c 00 	lds	r22, 0x008C
    3ce8:	70 91 8d 00 	lds	r23, 0x008D
    3cec:	66 50       	subi	r22, 0x06	; 6
    3cee:	70 40       	sbci	r23, 0x00	; 0
    3cf0:	09 96       	adiw	r24, 0x09	; 9
    3cf2:	45 e0       	ldi	r20, 0x05	; 5
    3cf4:	50 e0       	ldi	r21, 0x00	; 0
    3cf6:	0e 94 34 14 	call	0x2868	; 0x2868 <CrVBlock>
	ErHBlock(i,j,10);
    3cfa:	60 91 8c 00 	lds	r22, 0x008C
    3cfe:	70 91 8d 00 	lds	r23, 0x008D
    3d02:	80 91 a1 00 	lds	r24, 0x00A1
    3d06:	90 91 a2 00 	lds	r25, 0x00A2
    3d0a:	4a e0       	ldi	r20, 0x0A	; 10
    3d0c:	50 e0       	ldi	r21, 0x00	; 0
    3d0e:	0e 94 8d 14 	call	0x291a	; 0x291a <ErHBlock>
	CrHBlock(i,j-1,10);
    3d12:	60 91 8c 00 	lds	r22, 0x008C
    3d16:	70 91 8d 00 	lds	r23, 0x008D
    3d1a:	61 50       	subi	r22, 0x01	; 1
    3d1c:	70 40       	sbci	r23, 0x00	; 0
    3d1e:	80 91 a1 00 	lds	r24, 0x00A1
    3d22:	90 91 a2 00 	lds	r25, 0x00A2
    3d26:	4a e0       	ldi	r20, 0x0A	; 10
    3d28:	50 e0       	ldi	r21, 0x00	; 0
    3d2a:	0e 94 52 14 	call	0x28a4	; 0x28a4 <CrHBlock>
	ks0108DrawCircle(i+4, j-3, 1, WHITE);
    3d2e:	80 91 a1 00 	lds	r24, 0x00A1
    3d32:	60 91 8c 00 	lds	r22, 0x008C
    3d36:	64 50       	subi	r22, 0x04	; 4
    3d38:	8d 5f       	subi	r24, 0xFD	; 253
    3d3a:	42 e0       	ldi	r20, 0x02	; 2
    3d3c:	22 e0       	ldi	r18, 0x02	; 2
    3d3e:	01 e0       	ldi	r16, 0x01	; 1
    3d40:	ee 24       	eor	r14, r14
    3d42:	0e 94 1b 0e 	call	0x1c36	; 0x1c36 <ks0108DrawRoundRect>
	ks0108DrawCircle(i+4, j-4, 1, BLACK);
    3d46:	80 91 a1 00 	lds	r24, 0x00A1
    3d4a:	60 91 8c 00 	lds	r22, 0x008C
    3d4e:	65 50       	subi	r22, 0x05	; 5
    3d50:	8d 5f       	subi	r24, 0xFD	; 253
    3d52:	42 e0       	ldi	r20, 0x02	; 2
    3d54:	22 e0       	ldi	r18, 0x02	; 2
    3d56:	ee 24       	eor	r14, r14
    3d58:	ea 94       	dec	r14
    3d5a:	0e 94 1b 0e 	call	0x1c36	; 0x1c36 <ks0108DrawRoundRect>
	ErHBlock(25,i-1,10);

	}
clear_ball();
	
	for(i=25,j=61;j>=10;j--)
    3d5e:	80 91 8c 00 	lds	r24, 0x008C
    3d62:	90 91 8d 00 	lds	r25, 0x008D
    3d66:	01 97       	sbiw	r24, 0x01	; 1
    3d68:	90 93 8d 00 	sts	0x008D, r25
    3d6c:	80 93 8c 00 	sts	0x008C, r24
    3d70:	60 91 8c 00 	lds	r22, 0x008C
    3d74:	70 91 8d 00 	lds	r23, 0x008D
    3d78:	6a 30       	cpi	r22, 0x0A	; 10
    3d7a:	71 05       	cpc	r23, r1
    3d7c:	0c f0       	brlt	.+2      	; 0x3d80 <main+0xd80>
    3d7e:	6b cf       	rjmp	.-298    	; 0x3c56 <main+0xc56>
    3d80:	8c e7       	ldi	r24, 0x7C	; 124
    3d82:	92 e9       	ldi	r25, 0x92	; 146
    3d84:	01 97       	sbiw	r24, 0x01	; 1
    3d86:	f1 f7       	brne	.-4      	; 0x3d84 <main+0xd84>
	ks0108DrawCircle(i+4, j-3, 1, WHITE);
	ks0108DrawCircle(i+4, j-4, 1, BLACK);
	}
	_delay_ms(150);
	
	for(j=10;j>3;j--)
    3d88:	8a e0       	ldi	r24, 0x0A	; 10
    3d8a:	90 e0       	ldi	r25, 0x00	; 0
    3d8c:	0b c0       	rjmp	.+22     	; 0x3da4 <main+0xda4>
	{
	ErHBlock(25,j,10);
    3d8e:	89 e1       	ldi	r24, 0x19	; 25
    3d90:	90 e0       	ldi	r25, 0x00	; 0
    3d92:	4a e0       	ldi	r20, 0x0A	; 10
    3d94:	50 e0       	ldi	r21, 0x00	; 0
    3d96:	0e 94 8d 14 	call	0x291a	; 0x291a <ErHBlock>
	ks0108DrawCircle(i+4, j-3, 1, WHITE);
	ks0108DrawCircle(i+4, j-4, 1, BLACK);
	}
	_delay_ms(150);
	
	for(j=10;j>3;j--)
    3d9a:	80 91 8c 00 	lds	r24, 0x008C
    3d9e:	90 91 8d 00 	lds	r25, 0x008D
    3da2:	01 97       	sbiw	r24, 0x01	; 1
    3da4:	90 93 8d 00 	sts	0x008D, r25
    3da8:	80 93 8c 00 	sts	0x008C, r24
    3dac:	60 91 8c 00 	lds	r22, 0x008C
    3db0:	70 91 8d 00 	lds	r23, 0x008D
    3db4:	64 30       	cpi	r22, 0x04	; 4
    3db6:	71 05       	cpc	r23, r1
    3db8:	54 f7       	brge	.-44     	; 0x3d8e <main+0xd8e>
	{
	ErHBlock(25,j,10);
	}

	CrVBlock(27,3,10);
    3dba:	8b e1       	ldi	r24, 0x1B	; 27
    3dbc:	90 e0       	ldi	r25, 0x00	; 0
    3dbe:	63 e0       	ldi	r22, 0x03	; 3
    3dc0:	70 e0       	ldi	r23, 0x00	; 0
    3dc2:	4a e0       	ldi	r20, 0x0A	; 10
    3dc4:	50 e0       	ldi	r21, 0x00	; 0
    3dc6:	0e 94 34 14 	call	0x2868	; 0x2868 <CrVBlock>
	CrHBlock(27,3,5);
    3dca:	8b e1       	ldi	r24, 0x1B	; 27
    3dcc:	90 e0       	ldi	r25, 0x00	; 0
    3dce:	63 e0       	ldi	r22, 0x03	; 3
    3dd0:	70 e0       	ldi	r23, 0x00	; 0
    3dd2:	45 e0       	ldi	r20, 0x05	; 5
    3dd4:	50 e0       	ldi	r21, 0x00	; 0
    3dd6:	0e 94 52 14 	call	0x28a4	; 0x28a4 <CrHBlock>
	CrHBlock(27,12,5);
    3dda:	8b e1       	ldi	r24, 0x1B	; 27
    3ddc:	90 e0       	ldi	r25, 0x00	; 0
    3dde:	6c e0       	ldi	r22, 0x0C	; 12
    3de0:	70 e0       	ldi	r23, 0x00	; 0
    3de2:	45 e0       	ldi	r20, 0x05	; 5
    3de4:	50 e0       	ldi	r21, 0x00	; 0
    3de6:	0e 94 52 14 	call	0x28a4	; 0x28a4 <CrHBlock>
	CrVBlock(32,3,10);
    3dea:	80 e2       	ldi	r24, 0x20	; 32
    3dec:	90 e0       	ldi	r25, 0x00	; 0
    3dee:	63 e0       	ldi	r22, 0x03	; 3
    3df0:	70 e0       	ldi	r23, 0x00	; 0
    3df2:	4a e0       	ldi	r20, 0x0A	; 10
    3df4:	50 e0       	ldi	r21, 0x00	; 0
    3df6:	0e 94 34 14 	call	0x2868	; 0x2868 <CrVBlock>
	create_ball_initially(29,6);
    3dfa:	8d e1       	ldi	r24, 0x1D	; 29
    3dfc:	90 e0       	ldi	r25, 0x00	; 0
    3dfe:	66 e0       	ldi	r22, 0x06	; 6
    3e00:	70 e0       	ldi	r23, 0x00	; 0
    3e02:	0e 94 c2 10 	call	0x2184	; 0x2184 <create_ball_initially>
    3e06:	c2 01       	movw	r24, r4
    3e08:	01 97       	sbiw	r24, 0x01	; 1
    3e0a:	f1 f7       	brne	.-4      	; 0x3e08 <main+0xe08>
	_delay_ms(200);
	
	for(j=3;j<13;j++)
    3e0c:	83 e0       	ldi	r24, 0x03	; 3
    3e0e:	90 e0       	ldi	r25, 0x00	; 0
    3e10:	17 c0       	rjmp	.+46     	; 0x3e40 <main+0xe40>
	{
	CrVBlock(32,j,10);
    3e12:	80 e2       	ldi	r24, 0x20	; 32
    3e14:	90 e0       	ldi	r25, 0x00	; 0
    3e16:	4a e0       	ldi	r20, 0x0A	; 10
    3e18:	50 e0       	ldi	r21, 0x00	; 0
    3e1a:	0e 94 34 14 	call	0x2868	; 0x2868 <CrVBlock>
	ErVBlock(32,j-1,1);
    3e1e:	60 91 8c 00 	lds	r22, 0x008C
    3e22:	70 91 8d 00 	lds	r23, 0x008D
    3e26:	61 50       	subi	r22, 0x01	; 1
    3e28:	70 40       	sbci	r23, 0x00	; 0
    3e2a:	80 e2       	ldi	r24, 0x20	; 32
    3e2c:	90 e0       	ldi	r25, 0x00	; 0
    3e2e:	41 e0       	ldi	r20, 0x01	; 1
    3e30:	50 e0       	ldi	r21, 0x00	; 0
    3e32:	0e 94 6f 14 	call	0x28de	; 0x28de <ErVBlock>
	CrHBlock(27,12,5);
	CrVBlock(32,3,10);
	create_ball_initially(29,6);
	_delay_ms(200);
	
	for(j=3;j<13;j++)
    3e36:	80 91 8c 00 	lds	r24, 0x008C
    3e3a:	90 91 8d 00 	lds	r25, 0x008D
    3e3e:	01 96       	adiw	r24, 0x01	; 1
    3e40:	90 93 8d 00 	sts	0x008D, r25
    3e44:	80 93 8c 00 	sts	0x008C, r24
    3e48:	60 91 8c 00 	lds	r22, 0x008C
    3e4c:	70 91 8d 00 	lds	r23, 0x008D
    3e50:	6d 30       	cpi	r22, 0x0D	; 13
    3e52:	71 05       	cpc	r23, r1
    3e54:	f4 f2       	brlt	.-68     	; 0x3e12 <main+0xe12>
	{
	CrVBlock(32,j,10);
	ErVBlock(32,j-1,1);
	}
	event=1;
    3e56:	30 92 bf 00 	sts	0x00BF, r3
    3e5a:	20 92 be 00 	sts	0x00BE, r2
	k=32;
    3e5e:	80 e2       	ldi	r24, 0x20	; 32
    3e60:	90 e0       	ldi	r25, 0x00	; 0
    3e62:	90 93 97 00 	sts	0x0097, r25
    3e66:	80 93 96 00 	sts	0x0096, r24
	move_ball('r');
    3e6a:	82 e7       	ldi	r24, 0x72	; 114
    3e6c:	90 e0       	ldi	r25, 0x00	; 0
    3e6e:	0e 94 38 11 	call	0x2270	; 0x2270 <move_ball>
	move_ball('r');
    3e72:	82 e7       	ldi	r24, 0x72	; 114
    3e74:	90 e0       	ldi	r25, 0x00	; 0
    3e76:	0e 94 38 11 	call	0x2270	; 0x2270 <move_ball>

	move_ball('r');
    3e7a:	82 e7       	ldi	r24, 0x72	; 114
    3e7c:	90 e0       	ldi	r25, 0x00	; 0
    3e7e:	0e 94 38 11 	call	0x2270	; 0x2270 <move_ball>
	move_ball('r');
    3e82:	82 e7       	ldi	r24, 0x72	; 114
    3e84:	90 e0       	ldi	r25, 0x00	; 0
    3e86:	0e 94 38 11 	call	0x2270	; 0x2270 <move_ball>
	move_ball('r');
    3e8a:	82 e7       	ldi	r24, 0x72	; 114
    3e8c:	90 e0       	ldi	r25, 0x00	; 0
    3e8e:	0e 94 38 11 	call	0x2270	; 0x2270 <move_ball>
	move_ball('r');
    3e92:	82 e7       	ldi	r24, 0x72	; 114
    3e94:	90 e0       	ldi	r25, 0x00	; 0
    3e96:	0e 94 38 11 	call	0x2270	; 0x2270 <move_ball>
}
// xpos>32 then the bar present at x=38 securing the key of gate is start moving.	
	 if(event>=1) //then the bar start moving
    3e9a:	80 91 be 00 	lds	r24, 0x00BE
    3e9e:	90 91 bf 00 	lds	r25, 0x00BF
    3ea2:	18 16       	cp	r1, r24
    3ea4:	19 06       	cpc	r1, r25
    3ea6:	1c f5       	brge	.+70     	; 0x3eee <main+0xeee>
	{
	CrVBlock(43,k,5);
    3ea8:	60 91 96 00 	lds	r22, 0x0096
    3eac:	70 91 97 00 	lds	r23, 0x0097
    3eb0:	8b e2       	ldi	r24, 0x2B	; 43
    3eb2:	90 e0       	ldi	r25, 0x00	; 0
    3eb4:	45 e0       	ldi	r20, 0x05	; 5
    3eb6:	50 e0       	ldi	r21, 0x00	; 0
    3eb8:	0e 94 34 14 	call	0x2868	; 0x2868 <CrVBlock>
	ErVBlock(43,k,2);
    3ebc:	60 91 96 00 	lds	r22, 0x0096
    3ec0:	70 91 97 00 	lds	r23, 0x0097
    3ec4:	8b e2       	ldi	r24, 0x2B	; 43
    3ec6:	90 e0       	ldi	r25, 0x00	; 0
    3ec8:	42 e0       	ldi	r20, 0x02	; 2
    3eca:	50 e0       	ldi	r21, 0x00	; 0
    3ecc:	0e 94 6f 14 	call	0x28de	; 0x28de <ErVBlock>
	if(k<61)
    3ed0:	80 91 96 00 	lds	r24, 0x0096
    3ed4:	90 91 97 00 	lds	r25, 0x0097
    3ed8:	8d 33       	cpi	r24, 0x3D	; 61
    3eda:	91 05       	cpc	r25, r1
    3edc:	14 f4       	brge	.+4      	; 0x3ee2 <main+0xee2>
	 k++;
    3ede:	01 96       	adiw	r24, 0x01	; 1
    3ee0:	02 c0       	rjmp	.+4      	; 0x3ee6 <main+0xee6>
	 else
	 k=32;
    3ee2:	80 e2       	ldi	r24, 0x20	; 32
    3ee4:	90 e0       	ldi	r25, 0x00	; 0
    3ee6:	90 93 97 00 	sts	0x0097, r25
    3eea:	80 93 96 00 	sts	0x0096, r24
     }
// clear the ball 
if((xpos==43||xpos==42||xpos==41)&&ypos-1<=k&& ypos-1>=k-3)
    3eee:	80 91 8b 00 	lds	r24, 0x008B
    3ef2:	89 52       	subi	r24, 0x29	; 41
    3ef4:	83 30       	cpi	r24, 0x03	; 3
    3ef6:	d0 f4       	brcc	.+52     	; 0x3f2c <main+0xf2c>
    3ef8:	80 91 cf 00 	lds	r24, 0x00CF
    3efc:	48 2f       	mov	r20, r24
    3efe:	50 e0       	ldi	r21, 0x00	; 0
    3f00:	20 91 96 00 	lds	r18, 0x0096
    3f04:	30 91 97 00 	lds	r19, 0x0097
    3f08:	ca 01       	movw	r24, r20
    3f0a:	01 97       	sbiw	r24, 0x01	; 1
    3f0c:	28 17       	cp	r18, r24
    3f0e:	39 07       	cpc	r19, r25
    3f10:	6c f0       	brlt	.+26     	; 0x3f2c <main+0xf2c>
    3f12:	22 50       	subi	r18, 0x02	; 2
    3f14:	30 40       	sbci	r19, 0x00	; 0
    3f16:	42 17       	cp	r20, r18
    3f18:	53 07       	cpc	r21, r19
    3f1a:	44 f0       	brlt	.+16     	; 0x3f2c <main+0xf2c>
{clear_ball();
    3f1c:	0e 94 ea 10 	call	0x21d4	; 0x21d4 <clear_ball>
create_ball_initially(29,6);
    3f20:	8d e1       	ldi	r24, 0x1D	; 29
    3f22:	90 e0       	ldi	r25, 0x00	; 0
    3f24:	66 e0       	ldi	r22, 0x06	; 6
    3f26:	70 e0       	ldi	r23, 0x00	; 0
    3f28:	0e 94 c2 10 	call	0x2184	; 0x2184 <create_ball_initially>
}

// DOT to OPEN the GATE are at x=38  y=35	
 if((xpos==xfood||xpos+1==xfood||xpos+2==xfood)&& (ypos==yfood||ypos+1==yfood||ypos+2==yfood) )//or they are in surroundings)
    3f2c:	80 91 8b 00 	lds	r24, 0x008B
    3f30:	28 2f       	mov	r18, r24
    3f32:	30 e0       	ldi	r19, 0x00	; 0
    3f34:	40 91 90 00 	lds	r20, 0x0090
    3f38:	50 91 91 00 	lds	r21, 0x0091
    3f3c:	24 17       	cp	r18, r20
    3f3e:	35 07       	cpc	r19, r21
    3f40:	59 f0       	breq	.+22     	; 0x3f58 <main+0xf58>
    3f42:	c9 01       	movw	r24, r18
    3f44:	01 96       	adiw	r24, 0x01	; 1
    3f46:	84 17       	cp	r24, r20
    3f48:	95 07       	cpc	r25, r21
    3f4a:	31 f0       	breq	.+12     	; 0x3f58 <main+0xf58>
    3f4c:	2e 5f       	subi	r18, 0xFE	; 254
    3f4e:	3f 4f       	sbci	r19, 0xFF	; 255
    3f50:	24 17       	cp	r18, r20
    3f52:	35 07       	cpc	r19, r21
    3f54:	09 f0       	breq	.+2      	; 0x3f58 <main+0xf58>
    3f56:	a1 c0       	rjmp	.+322    	; 0x409a <main+0x109a>
    3f58:	80 91 cf 00 	lds	r24, 0x00CF
    3f5c:	28 2f       	mov	r18, r24
    3f5e:	30 e0       	ldi	r19, 0x00	; 0
    3f60:	40 91 aa 00 	lds	r20, 0x00AA
    3f64:	50 91 ab 00 	lds	r21, 0x00AB
    3f68:	24 17       	cp	r18, r20
    3f6a:	35 07       	cpc	r19, r21
    3f6c:	59 f0       	breq	.+22     	; 0x3f84 <main+0xf84>
    3f6e:	c9 01       	movw	r24, r18
    3f70:	01 96       	adiw	r24, 0x01	; 1
    3f72:	84 17       	cp	r24, r20
    3f74:	95 07       	cpc	r25, r21
    3f76:	31 f0       	breq	.+12     	; 0x3f84 <main+0xf84>
    3f78:	2e 5f       	subi	r18, 0xFE	; 254
    3f7a:	3f 4f       	sbci	r19, 0xFF	; 255
    3f7c:	24 17       	cp	r18, r20
    3f7e:	35 07       	cpc	r19, r21
    3f80:	09 f0       	breq	.+2      	; 0x3f84 <main+0xf84>
    3f82:	8b c0       	rjmp	.+278    	; 0x409a <main+0x109a>
     
{clear_ball();
    3f84:	0e 94 ea 10 	call	0x21d4	; 0x21d4 <clear_ball>
create_ball_initially(38,36);
    3f88:	86 e2       	ldi	r24, 0x26	; 38
    3f8a:	90 e0       	ldi	r25, 0x00	; 0
    3f8c:	64 e2       	ldi	r22, 0x24	; 36
    3f8e:	70 e0       	ldi	r23, 0x00	; 0
    3f90:	0e 94 c2 10 	call	0x2184	; 0x2184 <create_ball_initially>
event=2;
    3f94:	82 e0       	ldi	r24, 0x02	; 2
    3f96:	90 e0       	ldi	r25, 0x00	; 0
    3f98:	90 93 bf 00 	sts	0x00BF, r25
    3f9c:	80 93 be 00 	sts	0x00BE, r24
	 for(i=32,j=33;i>12,j<53;i--,j++)
    3fa0:	80 e2       	ldi	r24, 0x20	; 32
    3fa2:	90 e0       	ldi	r25, 0x00	; 0
    3fa4:	90 93 a2 00 	sts	0x00A2, r25
    3fa8:	80 93 a1 00 	sts	0x00A1, r24
    3fac:	b0 92 8d 00 	sts	0x008D, r11
    3fb0:	a0 92 8c 00 	sts	0x008C, r10
    3fb4:	6b c0       	rjmp	.+214    	; 0x408c <main+0x108c>
	 {
	 ks0108SetDot(71,i,WHITE);
    3fb6:	87 e4       	ldi	r24, 0x47	; 71
    3fb8:	60 91 a1 00 	lds	r22, 0x00A1
    3fbc:	40 e0       	ldi	r20, 0x00	; 0
    3fbe:	0e 94 87 0c 	call	0x190e	; 0x190e <ks0108SetDot>
	 ks0108SetDot(71,j,WHITE);
    3fc2:	87 e4       	ldi	r24, 0x47	; 71
    3fc4:	60 91 8c 00 	lds	r22, 0x008C
    3fc8:	40 e0       	ldi	r20, 0x00	; 0
    3fca:	0e 94 87 0c 	call	0x190e	; 0x190e <ks0108SetDot>
    3fce:	88 e8       	ldi	r24, 0x88	; 136
    3fd0:	93 e1       	ldi	r25, 0x13	; 19
    3fd2:	01 97       	sbiw	r24, 0x01	; 1
    3fd4:	f1 f7       	brne	.-4      	; 0x3fd2 <main+0xfd2>
	 _delay_ms(20);
	 if(j==52)
    3fd6:	20 91 8c 00 	lds	r18, 0x008C
    3fda:	30 91 8d 00 	lds	r19, 0x008D
    3fde:	24 33       	cpi	r18, 0x34	; 52
    3fe0:	31 05       	cpc	r19, r1
    3fe2:	09 f0       	breq	.+2      	; 0x3fe6 <main+0xfe6>
    3fe4:	44 c0       	rjmp	.+136    	; 0x406e <main+0x106e>
    3fe6:	84 ed       	ldi	r24, 0xD4	; 212
    3fe8:	90 e3       	ldi	r25, 0x30	; 48
    3fea:	01 97       	sbiw	r24, 0x01	; 1
    3fec:	f1 f7       	brne	.-4      	; 0x3fea <main+0xfea>
		{
		_delay_ms(50);
		for(i=32,j=33;i>24,j<41;i--,j++)
    3fee:	80 e2       	ldi	r24, 0x20	; 32
    3ff0:	90 e0       	ldi	r25, 0x00	; 0
    3ff2:	90 93 a2 00 	sts	0x00A2, r25
    3ff6:	80 93 a1 00 	sts	0x00A1, r24
    3ffa:	b0 92 8d 00 	sts	0x008D, r11
    3ffe:	a0 92 8c 00 	sts	0x008C, r10
    4002:	2e c0       	rjmp	.+92     	; 0x4060 <main+0x1060>
		{
		ks0108SetDot(70,i,WHITE);
    4004:	86 e4       	ldi	r24, 0x46	; 70
    4006:	60 91 a1 00 	lds	r22, 0x00A1
    400a:	40 e0       	ldi	r20, 0x00	; 0
    400c:	0e 94 87 0c 	call	0x190e	; 0x190e <ks0108SetDot>
		ks0108SetDot(72,i,WHITE);
    4010:	88 e4       	ldi	r24, 0x48	; 72
    4012:	60 91 a1 00 	lds	r22, 0x00A1
    4016:	40 e0       	ldi	r20, 0x00	; 0
    4018:	0e 94 87 0c 	call	0x190e	; 0x190e <ks0108SetDot>
		ks0108SetDot(70,j,WHITE);
    401c:	86 e4       	ldi	r24, 0x46	; 70
    401e:	60 91 8c 00 	lds	r22, 0x008C
    4022:	40 e0       	ldi	r20, 0x00	; 0
    4024:	0e 94 87 0c 	call	0x190e	; 0x190e <ks0108SetDot>
		ks0108SetDot(72,j,WHITE);
    4028:	88 e4       	ldi	r24, 0x48	; 72
    402a:	60 91 8c 00 	lds	r22, 0x008C
    402e:	40 e0       	ldi	r20, 0x00	; 0
    4030:	0e 94 87 0c 	call	0x190e	; 0x190e <ks0108SetDot>
    4034:	8c e7       	ldi	r24, 0x7C	; 124
    4036:	92 e9       	ldi	r25, 0x92	; 146
    4038:	01 97       	sbiw	r24, 0x01	; 1
    403a:	f1 f7       	brne	.-4      	; 0x4038 <main+0x1038>
	 ks0108SetDot(71,j,WHITE);
	 _delay_ms(20);
	 if(j==52)
		{
		_delay_ms(50);
		for(i=32,j=33;i>24,j<41;i--,j++)
    403c:	80 91 a1 00 	lds	r24, 0x00A1
    4040:	90 91 a2 00 	lds	r25, 0x00A2
    4044:	01 97       	sbiw	r24, 0x01	; 1
    4046:	90 93 a2 00 	sts	0x00A2, r25
    404a:	80 93 a1 00 	sts	0x00A1, r24
    404e:	80 91 8c 00 	lds	r24, 0x008C
    4052:	90 91 8d 00 	lds	r25, 0x008D
    4056:	01 96       	adiw	r24, 0x01	; 1
    4058:	90 93 8d 00 	sts	0x008D, r25
    405c:	80 93 8c 00 	sts	0x008C, r24
    4060:	80 91 8c 00 	lds	r24, 0x008C
    4064:	90 91 8d 00 	lds	r25, 0x008D
    4068:	89 97       	sbiw	r24, 0x29	; 41
    406a:	64 f2       	brlt	.-104    	; 0x4004 <main+0x1004>
    406c:	16 c0       	rjmp	.+44     	; 0x409a <main+0x109a>
 if((xpos==xfood||xpos+1==xfood||xpos+2==xfood)&& (ypos==yfood||ypos+1==yfood||ypos+2==yfood) )//or they are in surroundings)
     
{clear_ball();
create_ball_initially(38,36);
event=2;
	 for(i=32,j=33;i>12,j<53;i--,j++)
    406e:	80 91 a1 00 	lds	r24, 0x00A1
    4072:	90 91 a2 00 	lds	r25, 0x00A2
    4076:	01 97       	sbiw	r24, 0x01	; 1
    4078:	90 93 a2 00 	sts	0x00A2, r25
    407c:	80 93 a1 00 	sts	0x00A1, r24
    4080:	2f 5f       	subi	r18, 0xFF	; 255
    4082:	3f 4f       	sbci	r19, 0xFF	; 255
    4084:	30 93 8d 00 	sts	0x008D, r19
    4088:	20 93 8c 00 	sts	0x008C, r18
    408c:	80 91 8c 00 	lds	r24, 0x008C
    4090:	90 91 8d 00 	lds	r25, 0x008D
    4094:	c5 97       	sbiw	r24, 0x35	; 53
    4096:	0c f4       	brge	.+2      	; 0x409a <main+0x109a>
    4098:	8e cf       	rjmp	.-228    	; 0x3fb6 <main+0xfb6>
		}
	 }
}

//// conditin for the level to end 
	if(xpos>=114)
    409a:	80 91 8b 00 	lds	r24, 0x008B
    409e:	82 37       	cpi	r24, 0x72	; 114
    40a0:	a0 f1       	brcs	.+104    	; 0x410a <main+0x110a>
	{time2=time;
    40a2:	80 91 c0 00 	lds	r24, 0x00C0
    40a6:	90 91 c1 00 	lds	r25, 0x00C1
    40aa:	90 93 76 00 	sts	0x0076, r25
    40ae:	80 93 75 00 	sts	0x0075, r24
	Fscore=Fscore+71*time;
    40b2:	47 e4       	ldi	r20, 0x47	; 71
    40b4:	50 e0       	ldi	r21, 0x00	; 0
    40b6:	84 9f       	mul	r24, r20
    40b8:	90 01       	movw	r18, r0
    40ba:	85 9f       	mul	r24, r21
    40bc:	30 0d       	add	r19, r0
    40be:	94 9f       	mul	r25, r20
    40c0:	30 0d       	add	r19, r0
    40c2:	11 24       	eor	r1, r1
    40c4:	80 91 6f 00 	lds	r24, 0x006F
    40c8:	90 91 70 00 	lds	r25, 0x0070
    40cc:	82 0f       	add	r24, r18
    40ce:	93 1f       	adc	r25, r19
    40d0:	90 93 70 00 	sts	0x0070, r25
    40d4:	80 93 6f 00 	sts	0x006F, r24
	
	ks0108ClearScreen();// clear the screen
    40d8:	80 e0       	ldi	r24, 0x00	; 0
    40da:	60 e0       	ldi	r22, 0x00	; 0
    40dc:	4f e7       	ldi	r20, 0x7F	; 127
    40de:	2f e3       	ldi	r18, 0x3F	; 63
    40e0:	00 e0       	ldi	r16, 0x00	; 0
    40e2:	0e 94 5d 0d 	call	0x1aba	; 0x1aba <ks0108FillRect>
	//print the message
		ks0108GotoXY(10,10);
    40e6:	8a e0       	ldi	r24, 0x0A	; 10
    40e8:	6a e0       	ldi	r22, 0x0A	; 10
    40ea:	0e 94 44 0a 	call	0x1488	; 0x1488 <ks0108GotoXY>
	ks0108Puts_P(PSTR("Level Completed"));
    40ee:	80 ec       	ldi	r24, 0xC0	; 192
    40f0:	92 e1       	ldi	r25, 0x12	; 18
    40f2:	0e 94 38 0c 	call	0x1870	; 0x1870 <ks0108Puts_P>
	// print the score
	ks0108GotoXY(15,30);
    40f6:	8f e0       	ldi	r24, 0x0F	; 15
    40f8:	6e e1       	ldi	r22, 0x1E	; 30
    40fa:	0e 94 44 0a 	call	0x1488	; 0x1488 <ks0108GotoXY>
	
	
	
	level=3;
    40fe:	83 e0       	ldi	r24, 0x03	; 3
    4100:	90 e0       	ldi	r25, 0x00	; 0
    4102:	90 93 7a 00 	sts	0x007A, r25
    4106:	80 93 79 00 	sts	0x0079, r24
	}


if(test_time==20)
    410a:	80 91 9a 00 	lds	r24, 0x009A
    410e:	90 91 9b 00 	lds	r25, 0x009B
    4112:	44 97       	sbiw	r24, 0x14	; 20
    4114:	09 f0       	breq	.+2      	; 0x4118 <main+0x1118>
    4116:	c4 c0       	rjmp	.+392    	; 0x42a0 <main+0x12a0>
	{
	time--;
    4118:	20 91 c0 00 	lds	r18, 0x00C0
    411c:	30 91 c1 00 	lds	r19, 0x00C1
    4120:	21 50       	subi	r18, 0x01	; 1
    4122:	30 40       	sbci	r19, 0x00	; 0
    4124:	30 93 c1 00 	sts	0x00C1, r19
    4128:	20 93 c0 00 	sts	0x00C0, r18
	test_time=0;
    412c:	10 92 9b 00 	sts	0x009B, r1
    4130:	10 92 9a 00 	sts	0x009A, r1

	d3=time%10;
    4134:	c9 01       	movw	r24, r18
    4136:	6a e0       	ldi	r22, 0x0A	; 10
    4138:	70 e0       	ldi	r23, 0x00	; 0
    413a:	0e 94 a7 2b 	call	0x574e	; 0x574e <__divmodhi4>
    413e:	90 93 e1 00 	sts	0x00E1, r25
    4142:	80 93 e0 00 	sts	0x00E0, r24
	d2=(time/10)%10;
    4146:	c9 01       	movw	r24, r18
    4148:	6a e0       	ldi	r22, 0x0A	; 10
    414a:	70 e0       	ldi	r23, 0x00	; 0
    414c:	0e 94 a7 2b 	call	0x574e	; 0x574e <__divmodhi4>
    4150:	cb 01       	movw	r24, r22
    4152:	6a e0       	ldi	r22, 0x0A	; 10
    4154:	70 e0       	ldi	r23, 0x00	; 0
    4156:	0e 94 a7 2b 	call	0x574e	; 0x574e <__divmodhi4>
    415a:	90 93 b7 00 	sts	0x00B7, r25
    415e:	80 93 b6 00 	sts	0x00B6, r24
	d1=(time/100);
    4162:	c9 01       	movw	r24, r18
    4164:	64 e6       	ldi	r22, 0x64	; 100
    4166:	70 e0       	ldi	r23, 0x00	; 0
    4168:	0e 94 a7 2b 	call	0x574e	; 0x574e <__divmodhi4>
    416c:	70 93 95 00 	sts	0x0095, r23
    4170:	60 93 94 00 	sts	0x0094, r22

if(time%100==99)
    4174:	c9 01       	movw	r24, r18
    4176:	64 e6       	ldi	r22, 0x64	; 100
    4178:	70 e0       	ldi	r23, 0x00	; 0
    417a:	0e 94 a7 2b 	call	0x574e	; 0x574e <__divmodhi4>
    417e:	83 36       	cpi	r24, 0x63	; 99
    4180:	91 05       	cpc	r25, r1
    4182:	81 f5       	brne	.+96     	; 0x41e4 <main+0x11e4>
	{
	BlockClear(120,50);
    4184:	88 e7       	ldi	r24, 0x78	; 120
    4186:	90 e0       	ldi	r25, 0x00	; 0
    4188:	62 e3       	ldi	r22, 0x32	; 50
    418a:	70 e0       	ldi	r23, 0x00	; 0
    418c:	0e 94 f6 16 	call	0x2dec	; 0x2dec <BlockClear>
	BlockClear(120,45);
    4190:	88 e7       	ldi	r24, 0x78	; 120
    4192:	90 e0       	ldi	r25, 0x00	; 0
    4194:	6d e2       	ldi	r22, 0x2D	; 45
    4196:	70 e0       	ldi	r23, 0x00	; 0
    4198:	0e 94 f6 16 	call	0x2dec	; 0x2dec <BlockClear>
	BlockClear(120,40);
    419c:	88 e7       	ldi	r24, 0x78	; 120
    419e:	90 e0       	ldi	r25, 0x00	; 0
    41a0:	68 e2       	ldi	r22, 0x28	; 40
    41a2:	70 e0       	ldi	r23, 0x00	; 0
    41a4:	0e 94 f6 16 	call	0x2dec	; 0x2dec <BlockClear>
	print_num(120,40,d3);
    41a8:	40 91 e0 00 	lds	r20, 0x00E0
    41ac:	50 91 e1 00 	lds	r21, 0x00E1
    41b0:	88 e7       	ldi	r24, 0x78	; 120
    41b2:	90 e0       	ldi	r25, 0x00	; 0
    41b4:	68 e2       	ldi	r22, 0x28	; 40
    41b6:	70 e0       	ldi	r23, 0x00	; 0
    41b8:	0e 94 aa 14 	call	0x2954	; 0x2954 <print_num>
	print_num(120,45,d2);
    41bc:	40 91 b6 00 	lds	r20, 0x00B6
    41c0:	50 91 b7 00 	lds	r21, 0x00B7
    41c4:	88 e7       	ldi	r24, 0x78	; 120
    41c6:	90 e0       	ldi	r25, 0x00	; 0
    41c8:	6d e2       	ldi	r22, 0x2D	; 45
    41ca:	70 e0       	ldi	r23, 0x00	; 0
    41cc:	0e 94 aa 14 	call	0x2954	; 0x2954 <print_num>
	print_num(120,50,d1);
    41d0:	40 91 94 00 	lds	r20, 0x0094
    41d4:	50 91 95 00 	lds	r21, 0x0095
    41d8:	88 e7       	ldi	r24, 0x78	; 120
    41da:	90 e0       	ldi	r25, 0x00	; 0
    41dc:	62 e3       	ldi	r22, 0x32	; 50
    41de:	70 e0       	ldi	r23, 0x00	; 0
    41e0:	0e 94 aa 14 	call	0x2954	; 0x2954 <print_num>
	}

	if(time%10==9)
    41e4:	80 91 c0 00 	lds	r24, 0x00C0
    41e8:	90 91 c1 00 	lds	r25, 0x00C1
    41ec:	6a e0       	ldi	r22, 0x0A	; 10
    41ee:	70 e0       	ldi	r23, 0x00	; 0
    41f0:	0e 94 a7 2b 	call	0x574e	; 0x574e <__divmodhi4>
    41f4:	09 97       	sbiw	r24, 0x09	; 9
    41f6:	51 f5       	brne	.+84     	; 0x424c <main+0x124c>
	{
	BlockClear(120,40);
    41f8:	88 e7       	ldi	r24, 0x78	; 120
    41fa:	90 e0       	ldi	r25, 0x00	; 0
    41fc:	68 e2       	ldi	r22, 0x28	; 40
    41fe:	70 e0       	ldi	r23, 0x00	; 0
    4200:	0e 94 f6 16 	call	0x2dec	; 0x2dec <BlockClear>
	BlockClear(120,45);
    4204:	88 e7       	ldi	r24, 0x78	; 120
    4206:	90 e0       	ldi	r25, 0x00	; 0
    4208:	6d e2       	ldi	r22, 0x2D	; 45
    420a:	70 e0       	ldi	r23, 0x00	; 0
    420c:	0e 94 f6 16 	call	0x2dec	; 0x2dec <BlockClear>
	print_num(120,40,d3);
    4210:	40 91 e0 00 	lds	r20, 0x00E0
    4214:	50 91 e1 00 	lds	r21, 0x00E1
    4218:	88 e7       	ldi	r24, 0x78	; 120
    421a:	90 e0       	ldi	r25, 0x00	; 0
    421c:	68 e2       	ldi	r22, 0x28	; 40
    421e:	70 e0       	ldi	r23, 0x00	; 0
    4220:	0e 94 aa 14 	call	0x2954	; 0x2954 <print_num>
	print_num(120,45,d2);
    4224:	40 91 b6 00 	lds	r20, 0x00B6
    4228:	50 91 b7 00 	lds	r21, 0x00B7
    422c:	88 e7       	ldi	r24, 0x78	; 120
    422e:	90 e0       	ldi	r25, 0x00	; 0
    4230:	6d e2       	ldi	r22, 0x2D	; 45
    4232:	70 e0       	ldi	r23, 0x00	; 0
    4234:	0e 94 aa 14 	call	0x2954	; 0x2954 <print_num>
	print_num(120,50,d1);
    4238:	40 91 94 00 	lds	r20, 0x0094
    423c:	50 91 95 00 	lds	r21, 0x0095
    4240:	88 e7       	ldi	r24, 0x78	; 120
    4242:	90 e0       	ldi	r25, 0x00	; 0
    4244:	62 e3       	ldi	r22, 0x32	; 50
    4246:	70 e0       	ldi	r23, 0x00	; 0
    4248:	0e 94 aa 14 	call	0x2954	; 0x2954 <print_num>
	}
	
	if(d3>=0)
    424c:	80 91 e0 00 	lds	r24, 0x00E0
    4250:	90 91 e1 00 	lds	r25, 0x00E1
    4254:	97 fd       	sbrc	r25, 7
    4256:	24 c0       	rjmp	.+72     	; 0x42a0 <main+0x12a0>
	{
	BlockClear(120,40);
    4258:	88 e7       	ldi	r24, 0x78	; 120
    425a:	90 e0       	ldi	r25, 0x00	; 0
    425c:	68 e2       	ldi	r22, 0x28	; 40
    425e:	70 e0       	ldi	r23, 0x00	; 0
    4260:	0e 94 f6 16 	call	0x2dec	; 0x2dec <BlockClear>
	print_num(120,40,d3);
    4264:	40 91 e0 00 	lds	r20, 0x00E0
    4268:	50 91 e1 00 	lds	r21, 0x00E1
    426c:	88 e7       	ldi	r24, 0x78	; 120
    426e:	90 e0       	ldi	r25, 0x00	; 0
    4270:	68 e2       	ldi	r22, 0x28	; 40
    4272:	70 e0       	ldi	r23, 0x00	; 0
    4274:	0e 94 aa 14 	call	0x2954	; 0x2954 <print_num>
	print_num(120,45,d2);
    4278:	40 91 b6 00 	lds	r20, 0x00B6
    427c:	50 91 b7 00 	lds	r21, 0x00B7
    4280:	88 e7       	ldi	r24, 0x78	; 120
    4282:	90 e0       	ldi	r25, 0x00	; 0
    4284:	6d e2       	ldi	r22, 0x2D	; 45
    4286:	70 e0       	ldi	r23, 0x00	; 0
    4288:	0e 94 aa 14 	call	0x2954	; 0x2954 <print_num>
	print_num(120,50,d1);
    428c:	40 91 94 00 	lds	r20, 0x0094
    4290:	50 91 95 00 	lds	r21, 0x0095
    4294:	88 e7       	ldi	r24, 0x78	; 120
    4296:	90 e0       	ldi	r25, 0x00	; 0
    4298:	62 e3       	ldi	r22, 0x32	; 50
    429a:	70 e0       	ldi	r23, 0x00	; 0
    429c:	0e 94 aa 14 	call	0x2954	; 0x2954 <print_num>
	}
	}
	if(time<=0)
    42a0:	80 91 c0 00 	lds	r24, 0x00C0
    42a4:	90 91 c1 00 	lds	r25, 0x00C1
    42a8:	18 16       	cp	r1, r24
    42aa:	19 06       	cpc	r1, r25
    42ac:	0c f4       	brge	.+2      	; 0x42b0 <main+0x12b0>
    42ae:	ef c0       	rjmp	.+478    	; 0x448e <main+0x148e>
	{
ks0108ClearScreen();
    42b0:	80 e0       	ldi	r24, 0x00	; 0
    42b2:	60 e0       	ldi	r22, 0x00	; 0
    42b4:	4f e7       	ldi	r20, 0x7F	; 127
    42b6:	2f e3       	ldi	r18, 0x3F	; 63
    42b8:	00 e0       	ldi	r16, 0x00	; 0
    42ba:	0e 94 5d 0d 	call	0x1aba	; 0x1aba <ks0108FillRect>
ks0108GotoXY(10,30);
    42be:	8a e0       	ldi	r24, 0x0A	; 10
    42c0:	6e e1       	ldi	r22, 0x1E	; 30
    42c2:	0e 94 44 0a 	call	0x1488	; 0x1488 <ks0108GotoXY>
ks0108Puts_P(PSTR("!!!..Game Over..!!!"));
    42c6:	8c ea       	ldi	r24, 0xAC	; 172
    42c8:	92 e1       	ldi	r25, 0x12	; 18
    42ca:	0e 94 38 0c 	call	0x1870	; 0x1870 <ks0108Puts_P>
    42ce:	88 ea       	ldi	r24, 0xA8	; 168
    42d0:	91 e6       	ldi	r25, 0x61	; 97
    42d2:	01 97       	sbiw	r24, 0x01	; 1
    42d4:	f1 f7       	brne	.-4      	; 0x42d2 <main+0x12d2>
_delay_ms(100);
ks0108ClearScreen();
    42d6:	80 e0       	ldi	r24, 0x00	; 0
    42d8:	60 e0       	ldi	r22, 0x00	; 0
    42da:	4f e7       	ldi	r20, 0x7F	; 127
    42dc:	2f e3       	ldi	r18, 0x3F	; 63
    42de:	0e 94 5d 0d 	call	0x1aba	; 0x1aba <ks0108FillRect>

//PRINT SCORE

	ks0108GotoXY(15,20);
    42e2:	8f e0       	ldi	r24, 0x0F	; 15
    42e4:	64 e1       	ldi	r22, 0x14	; 20
    42e6:	0e 94 44 0a 	call	0x1488	; 0x1488 <ks0108GotoXY>
	ks0108Puts_P(PSTR("Score -"));
    42ea:	84 ea       	ldi	r24, 0xA4	; 164
    42ec:	92 e1       	ldi	r25, 0x12	; 18
    42ee:	0e 94 38 0c 	call	0x1870	; 0x1870 <ks0108Puts_P>
	ks0108GotoXY(70,20);
    42f2:	86 e4       	ldi	r24, 0x46	; 70
    42f4:	64 e1       	ldi	r22, 0x14	; 20
    42f6:	0e 94 44 0a 	call	0x1488	; 0x1488 <ks0108GotoXY>
	itoa(Fscore,a,10);
    42fa:	80 91 6f 00 	lds	r24, 0x006F
    42fe:	90 91 70 00 	lds	r25, 0x0070
    4302:	60 ed       	ldi	r22, 0xD0	; 208
    4304:	70 e0       	ldi	r23, 0x00	; 0
    4306:	4a e0       	ldi	r20, 0x0A	; 10
    4308:	50 e0       	ldi	r21, 0x00	; 0
    430a:	0e 94 ce 2b 	call	0x579c	; 0x579c <itoa>
	ks0108Puts(a);
    430e:	80 ed       	ldi	r24, 0xD0	; 208
    4310:	90 e0       	ldi	r25, 0x00	; 0
    4312:	0e 94 60 0c 	call	0x18c0	; 0x18c0 <ks0108Puts>
    4316:	80 e4       	ldi	r24, 0x40	; 64
    4318:	9f e1       	ldi	r25, 0x1F	; 31
    431a:	f6 01       	movw	r30, r12
    431c:	31 97       	sbiw	r30, 0x01	; 1
    431e:	f1 f7       	brne	.-4      	; 0x431c <main+0x131c>
		{
			// wait 1/10 ms
			_delay_loop_2(((F_CPU) / 4e3) / 10);
			__ticks --;
    4320:	01 97       	sbiw	r24, 0x01	; 1
		__ticks = 1;
	else if (__tmp > 65535)
	{
		//	__ticks = requested delay in 1/10 ms
		__ticks = (uint16_t) (__ms * 10.0);
		while(__ticks)
    4322:	d9 f7       	brne	.-10     	; 0x431a <main+0x131a>
	_delay_ms(800);
	ks0108ClearScreen();
    4324:	80 e0       	ldi	r24, 0x00	; 0
    4326:	60 e0       	ldi	r22, 0x00	; 0
    4328:	4f e7       	ldi	r20, 0x7F	; 127
    432a:	2f e3       	ldi	r18, 0x3F	; 63
    432c:	00 e0       	ldi	r16, 0x00	; 0
    432e:	0e 94 5d 0d 	call	0x1aba	; 0x1aba <ks0108FillRect>
	
	if(Fscore>=high_score1)
    4332:	40 91 6f 00 	lds	r20, 0x006F
    4336:	50 91 70 00 	lds	r21, 0x0070
    433a:	20 91 63 00 	lds	r18, 0x0063
    433e:	30 91 64 00 	lds	r19, 0x0064
    4342:	42 17       	cp	r20, r18
    4344:	53 07       	cpc	r21, r19
    4346:	64 f1       	brlt	.+88     	; 0x43a0 <main+0x13a0>
	{
	high_score3=high_score2;
    4348:	80 91 65 00 	lds	r24, 0x0065
    434c:	90 91 66 00 	lds	r25, 0x0066
    4350:	90 93 6e 00 	sts	0x006E, r25
    4354:	80 93 6d 00 	sts	0x006D, r24
	high_score2=high_score1;
    4358:	30 93 66 00 	sts	0x0066, r19
    435c:	20 93 65 00 	sts	0x0065, r18
	high_score1=Fscore;
    4360:	50 93 64 00 	sts	0x0064, r21
    4364:	40 93 63 00 	sts	0x0063, r20
	ks0108ClearScreen();
    4368:	80 e0       	ldi	r24, 0x00	; 0
    436a:	60 e0       	ldi	r22, 0x00	; 0
    436c:	4f e7       	ldi	r20, 0x7F	; 127
    436e:	2f e3       	ldi	r18, 0x3F	; 63
    4370:	0e 94 5d 0d 	call	0x1aba	; 0x1aba <ks0108FillRect>
	ks0108GotoXY(15,25);
    4374:	8f e0       	ldi	r24, 0x0F	; 15
    4376:	69 e1       	ldi	r22, 0x19	; 25
    4378:	0e 94 44 0a 	call	0x1488	; 0x1488 <ks0108GotoXY>
	ks0108Puts_P(PSTR("!!!!HIGH SCORE!!!!"));
    437c:	81 e9       	ldi	r24, 0x91	; 145
    437e:	92 e1       	ldi	r25, 0x12	; 18
    4380:	0e 94 38 0c 	call	0x1870	; 0x1870 <ks0108Puts_P>
    4384:	88 e8       	ldi	r24, 0x88	; 136
    4386:	93 e1       	ldi	r25, 0x13	; 19
    4388:	f6 01       	movw	r30, r12
    438a:	31 97       	sbiw	r30, 0x01	; 1
    438c:	f1 f7       	brne	.-4      	; 0x438a <main+0x138a>
		{
			// wait 1/10 ms
			_delay_loop_2(((F_CPU) / 4e3) / 10);
			__ticks --;
    438e:	01 97       	sbiw	r24, 0x01	; 1
		__ticks = 1;
	else if (__tmp > 65535)
	{
		//	__ticks = requested delay in 1/10 ms
		__ticks = (uint16_t) (__ms * 10.0);
		while(__ticks)
    4390:	d9 f7       	brne	.-10     	; 0x4388 <main+0x1388>
	_delay_ms(500);
	ks0108ClearScreen();
    4392:	80 e0       	ldi	r24, 0x00	; 0
    4394:	60 e0       	ldi	r22, 0x00	; 0
    4396:	4f e7       	ldi	r20, 0x7F	; 127
    4398:	2f e3       	ldi	r18, 0x3F	; 63
    439a:	00 e0       	ldi	r16, 0x00	; 0
    439c:	0e 94 5d 0d 	call	0x1aba	; 0x1aba <ks0108FillRect>
	}
	 if(Fscore>=high_score2 && Fscore< high_score1)
    43a0:	20 91 6f 00 	lds	r18, 0x006F
    43a4:	30 91 70 00 	lds	r19, 0x0070
    43a8:	40 91 65 00 	lds	r20, 0x0065
    43ac:	50 91 66 00 	lds	r21, 0x0066
    43b0:	24 17       	cp	r18, r20
    43b2:	35 07       	cpc	r19, r21
    43b4:	64 f1       	brlt	.+88     	; 0x440e <main+0x140e>
    43b6:	80 91 63 00 	lds	r24, 0x0063
    43ba:	90 91 64 00 	lds	r25, 0x0064
    43be:	28 17       	cp	r18, r24
    43c0:	39 07       	cpc	r19, r25
    43c2:	2c f5       	brge	.+74     	; 0x440e <main+0x140e>
	{
	high_score3=high_score2;
    43c4:	50 93 6e 00 	sts	0x006E, r21
    43c8:	40 93 6d 00 	sts	0x006D, r20
	high_score2=Fscore;
    43cc:	30 93 66 00 	sts	0x0066, r19
    43d0:	20 93 65 00 	sts	0x0065, r18
	ks0108ClearScreen();
    43d4:	80 e0       	ldi	r24, 0x00	; 0
    43d6:	60 e0       	ldi	r22, 0x00	; 0
    43d8:	4f e7       	ldi	r20, 0x7F	; 127
    43da:	2f e3       	ldi	r18, 0x3F	; 63
    43dc:	00 e0       	ldi	r16, 0x00	; 0
    43de:	0e 94 5d 0d 	call	0x1aba	; 0x1aba <ks0108FillRect>
	ks0108GotoXY(15,25);
    43e2:	8f e0       	ldi	r24, 0x0F	; 15
    43e4:	69 e1       	ldi	r22, 0x19	; 25
    43e6:	0e 94 44 0a 	call	0x1488	; 0x1488 <ks0108GotoXY>
	ks0108Puts_P(PSTR("!!!!HIGH SCORE!!!!"));
    43ea:	8e e7       	ldi	r24, 0x7E	; 126
    43ec:	92 e1       	ldi	r25, 0x12	; 18
    43ee:	0e 94 38 0c 	call	0x1870	; 0x1870 <ks0108Puts_P>
    43f2:	88 e8       	ldi	r24, 0x88	; 136
    43f4:	93 e1       	ldi	r25, 0x13	; 19
    43f6:	f6 01       	movw	r30, r12
    43f8:	31 97       	sbiw	r30, 0x01	; 1
    43fa:	f1 f7       	brne	.-4      	; 0x43f8 <main+0x13f8>
		{
			// wait 1/10 ms
			_delay_loop_2(((F_CPU) / 4e3) / 10);
			__ticks --;
    43fc:	01 97       	sbiw	r24, 0x01	; 1
		__ticks = 1;
	else if (__tmp > 65535)
	{
		//	__ticks = requested delay in 1/10 ms
		__ticks = (uint16_t) (__ms * 10.0);
		while(__ticks)
    43fe:	d9 f7       	brne	.-10     	; 0x43f6 <main+0x13f6>
	_delay_ms(500);
	ks0108ClearScreen();
    4400:	80 e0       	ldi	r24, 0x00	; 0
    4402:	60 e0       	ldi	r22, 0x00	; 0
    4404:	4f e7       	ldi	r20, 0x7F	; 127
    4406:	2f e3       	ldi	r18, 0x3F	; 63
    4408:	00 e0       	ldi	r16, 0x00	; 0
    440a:	0e 94 5d 0d 	call	0x1aba	; 0x1aba <ks0108FillRect>
	}
	if(Fscore>=high_score3 && Fscore<high_score2 && Fscore<high_score1)
    440e:	20 91 6f 00 	lds	r18, 0x006F
    4412:	30 91 70 00 	lds	r19, 0x0070
    4416:	80 91 6d 00 	lds	r24, 0x006D
    441a:	90 91 6e 00 	lds	r25, 0x006E
    441e:	28 17       	cp	r18, r24
    4420:	39 07       	cpc	r19, r25
    4422:	7c f1       	brlt	.+94     	; 0x4482 <main+0x1482>
    4424:	80 91 65 00 	lds	r24, 0x0065
    4428:	90 91 66 00 	lds	r25, 0x0066
    442c:	28 17       	cp	r18, r24
    442e:	39 07       	cpc	r19, r25
    4430:	44 f5       	brge	.+80     	; 0x4482 <main+0x1482>
    4432:	80 91 63 00 	lds	r24, 0x0063
    4436:	90 91 64 00 	lds	r25, 0x0064
    443a:	28 17       	cp	r18, r24
    443c:	39 07       	cpc	r19, r25
    443e:	0c f5       	brge	.+66     	; 0x4482 <main+0x1482>
	{
	high_score3=Fscore;
    4440:	30 93 6e 00 	sts	0x006E, r19
    4444:	20 93 6d 00 	sts	0x006D, r18
	ks0108ClearScreen();
    4448:	80 e0       	ldi	r24, 0x00	; 0
    444a:	60 e0       	ldi	r22, 0x00	; 0
    444c:	4f e7       	ldi	r20, 0x7F	; 127
    444e:	2f e3       	ldi	r18, 0x3F	; 63
    4450:	00 e0       	ldi	r16, 0x00	; 0
    4452:	0e 94 5d 0d 	call	0x1aba	; 0x1aba <ks0108FillRect>
	ks0108GotoXY(15,25);
    4456:	8f e0       	ldi	r24, 0x0F	; 15
    4458:	69 e1       	ldi	r22, 0x19	; 25
    445a:	0e 94 44 0a 	call	0x1488	; 0x1488 <ks0108GotoXY>
	ks0108Puts_P(PSTR("!!!!HIGH SCORE!!!!"));
    445e:	8b e6       	ldi	r24, 0x6B	; 107
    4460:	92 e1       	ldi	r25, 0x12	; 18
    4462:	0e 94 38 0c 	call	0x1870	; 0x1870 <ks0108Puts_P>
    4466:	88 e8       	ldi	r24, 0x88	; 136
    4468:	93 e1       	ldi	r25, 0x13	; 19
    446a:	f6 01       	movw	r30, r12
    446c:	31 97       	sbiw	r30, 0x01	; 1
    446e:	f1 f7       	brne	.-4      	; 0x446c <main+0x146c>
		{
			// wait 1/10 ms
			_delay_loop_2(((F_CPU) / 4e3) / 10);
			__ticks --;
    4470:	01 97       	sbiw	r24, 0x01	; 1
		__ticks = 1;
	else if (__tmp > 65535)
	{
		//	__ticks = requested delay in 1/10 ms
		__ticks = (uint16_t) (__ms * 10.0);
		while(__ticks)
    4472:	d9 f7       	brne	.-10     	; 0x446a <main+0x146a>
	_delay_ms(500);
	ks0108ClearScreen();
    4474:	80 e0       	ldi	r24, 0x00	; 0
    4476:	60 e0       	ldi	r22, 0x00	; 0
    4478:	4f e7       	ldi	r20, 0x7F	; 127
    447a:	2f e3       	ldi	r18, 0x3F	; 63
    447c:	00 e0       	ldi	r16, 0x00	; 0
    447e:	0e 94 5d 0d 	call	0x1aba	; 0x1aba <ks0108FillRect>
	}
	

    menu();
    4482:	0e 94 2d 17 	call	0x2e5a	; 0x2e5a <menu>
	level=0;
    4486:	10 92 7a 00 	sts	0x007A, r1
    448a:	10 92 79 00 	sts	0x0079, r1
	}

  // _delay_ms(75);
  test_time++;
    448e:	80 91 9a 00 	lds	r24, 0x009A
    4492:	90 91 9b 00 	lds	r25, 0x009B
    4496:	01 96       	adiw	r24, 0x01	; 1
    4498:	90 93 9b 00 	sts	0x009B, r25
    449c:	80 93 9a 00 	sts	0x009A, r24
	test_time=0;
	d1=0;
	d2=0;
	d3=0;

while(level==2)
    44a0:	80 91 79 00 	lds	r24, 0x0079
    44a4:	90 91 7a 00 	lds	r25, 0x007A
    44a8:	02 97       	sbiw	r24, 0x02	; 2
    44aa:	09 f4       	brne	.+2      	; 0x44ae <main+0x14ae>
    44ac:	b6 ca       	rjmp	.-2708   	; 0x3a1a <main+0xa1a>

}



if(level==3)
    44ae:	80 91 79 00 	lds	r24, 0x0079
    44b2:	90 91 7a 00 	lds	r25, 0x007A
    44b6:	03 97       	sbiw	r24, 0x03	; 3
    44b8:	11 f0       	breq	.+4      	; 0x44be <main+0x14be>
    44ba:	0c 94 37 18 	jmp	0x306e	; 0x306e <main+0x6e>
{
// displaying the messages
ks0108ClearScreen();
    44be:	80 e0       	ldi	r24, 0x00	; 0
    44c0:	60 e0       	ldi	r22, 0x00	; 0
    44c2:	4f e7       	ldi	r20, 0x7F	; 127
    44c4:	2f e3       	ldi	r18, 0x3F	; 63
    44c6:	00 e0       	ldi	r16, 0x00	; 0
    44c8:	0e 94 5d 0d 	call	0x1aba	; 0x1aba <ks0108FillRect>

ks0108DrawRect(30,15,61,20,BLACK);
    44cc:	8e e1       	ldi	r24, 0x1E	; 30
    44ce:	6f e0       	ldi	r22, 0x0F	; 15
    44d0:	4d e3       	ldi	r20, 0x3D	; 61
    44d2:	24 e1       	ldi	r18, 0x14	; 20
    44d4:	0f ef       	ldi	r16, 0xFF	; 255
    44d6:	0e 94 f6 0e 	call	0x1dec	; 0x1dec <ks0108DrawRect>
ks0108DrawRect(31,16,59,18,BLACK);
    44da:	8f e1       	ldi	r24, 0x1F	; 31
    44dc:	60 e1       	ldi	r22, 0x10	; 16
    44de:	4b e3       	ldi	r20, 0x3B	; 59
    44e0:	22 e1       	ldi	r18, 0x12	; 18
    44e2:	0e 94 f6 0e 	call	0x1dec	; 0x1dec <ks0108DrawRect>
ks0108GotoXY(35,20);
    44e6:	83 e2       	ldi	r24, 0x23	; 35
    44e8:	64 e1       	ldi	r22, 0x14	; 20
    44ea:	0e 94 44 0a 	call	0x1488	; 0x1488 <ks0108GotoXY>

	ks0108Puts_P(PSTR("LEVEL 3"));
    44ee:	83 e6       	ldi	r24, 0x63	; 99
    44f0:	92 e1       	ldi	r25, 0x12	; 18
    44f2:	0e 94 38 0c 	call	0x1870	; 0x1870 <ks0108Puts_P>
    44f6:	e0 e5       	ldi	r30, 0x50	; 80
    44f8:	ee 2e       	mov	r14, r30
    44fa:	e3 ec       	ldi	r30, 0xC3	; 195
    44fc:	fe 2e       	mov	r15, r30
    44fe:	c7 01       	movw	r24, r14
    4500:	01 97       	sbiw	r24, 0x01	; 1
    4502:	f1 f7       	brne	.-4      	; 0x4500 <main+0x1500>
	_delay_ms(200);
ks0108ClearScreen();
    4504:	80 e0       	ldi	r24, 0x00	; 0
    4506:	60 e0       	ldi	r22, 0x00	; 0
    4508:	4f e7       	ldi	r20, 0x7F	; 127
    450a:	2f e3       	ldi	r18, 0x3F	; 63
    450c:	00 e0       	ldi	r16, 0x00	; 0
    450e:	0e 94 5d 0d 	call	0x1aba	; 0x1aba <ks0108FillRect>

	ks0108GotoXY(60,20);
    4512:	8c e3       	ldi	r24, 0x3C	; 60
    4514:	64 e1       	ldi	r22, 0x14	; 20
    4516:	0e 94 44 0a 	call	0x1488	; 0x1488 <ks0108GotoXY>
ks0108Puts_P(PSTR("3"));
    451a:	81 e6       	ldi	r24, 0x61	; 97
    451c:	92 e1       	ldi	r25, 0x12	; 18
    451e:	0e 94 38 0c 	call	0x1870	; 0x1870 <ks0108Puts_P>
    4522:	c7 01       	movw	r24, r14
    4524:	01 97       	sbiw	r24, 0x01	; 1
    4526:	f1 f7       	brne	.-4      	; 0x4524 <main+0x1524>
	_delay_ms(200);
ks0108ClearScreen();
    4528:	80 e0       	ldi	r24, 0x00	; 0
    452a:	60 e0       	ldi	r22, 0x00	; 0
    452c:	4f e7       	ldi	r20, 0x7F	; 127
    452e:	2f e3       	ldi	r18, 0x3F	; 63
    4530:	0e 94 5d 0d 	call	0x1aba	; 0x1aba <ks0108FillRect>
	ks0108GotoXY(60,20);
    4534:	8c e3       	ldi	r24, 0x3C	; 60
    4536:	64 e1       	ldi	r22, 0x14	; 20
    4538:	0e 94 44 0a 	call	0x1488	; 0x1488 <ks0108GotoXY>
ks0108Puts_P(PSTR("2"));
    453c:	8f e5       	ldi	r24, 0x5F	; 95
    453e:	92 e1       	ldi	r25, 0x12	; 18
    4540:	0e 94 38 0c 	call	0x1870	; 0x1870 <ks0108Puts_P>
    4544:	c7 01       	movw	r24, r14
    4546:	01 97       	sbiw	r24, 0x01	; 1
    4548:	f1 f7       	brne	.-4      	; 0x4546 <main+0x1546>
	_delay_ms(200);
ks0108ClearScreen();
    454a:	80 e0       	ldi	r24, 0x00	; 0
    454c:	60 e0       	ldi	r22, 0x00	; 0
    454e:	4f e7       	ldi	r20, 0x7F	; 127
    4550:	2f e3       	ldi	r18, 0x3F	; 63
    4552:	0e 94 5d 0d 	call	0x1aba	; 0x1aba <ks0108FillRect>
	ks0108GotoXY(60,20);
    4556:	8c e3       	ldi	r24, 0x3C	; 60
    4558:	64 e1       	ldi	r22, 0x14	; 20
    455a:	0e 94 44 0a 	call	0x1488	; 0x1488 <ks0108GotoXY>
ks0108Puts_P(PSTR("1"));
    455e:	8d e5       	ldi	r24, 0x5D	; 93
    4560:	92 e1       	ldi	r25, 0x12	; 18
    4562:	0e 94 38 0c 	call	0x1870	; 0x1870 <ks0108Puts_P>
    4566:	c7 01       	movw	r24, r14
    4568:	01 97       	sbiw	r24, 0x01	; 1
    456a:	f1 f7       	brne	.-4      	; 0x4568 <main+0x1568>
	_delay_ms(200);
ks0108ClearScreen();
    456c:	80 e0       	ldi	r24, 0x00	; 0
    456e:	60 e0       	ldi	r22, 0x00	; 0
    4570:	4f e7       	ldi	r20, 0x7F	; 127
    4572:	2f e3       	ldi	r18, 0x3F	; 63
    4574:	0e 94 5d 0d 	call	0x1aba	; 0x1aba <ks0108FillRect>
// printing the image
LoadBitmap2(IMAGE3);
    4578:	83 e8       	ldi	r24, 0x83	; 131
    457a:	90 e0       	ldi	r25, 0x00	; 0
    457c:	0e 94 87 10 	call	0x210e	; 0x210e <LoadBitmap2>
food=0;
    4580:	10 92 7e 00 	sts	0x007E, r1
    4584:	10 92 7d 00 	sts	0x007D, r1
food2=0;
    4588:	10 92 a0 00 	sts	0x00A0, r1
    458c:	10 92 9f 00 	sts	0x009F, r1
event=0;
    4590:	10 92 bf 00 	sts	0x00BF, r1
    4594:	10 92 be 00 	sts	0x00BE, r1
// creating the food 
create_ball_initially(25,9);
    4598:	89 e1       	ldi	r24, 0x19	; 25
    459a:	90 e0       	ldi	r25, 0x00	; 0
    459c:	69 e0       	ldi	r22, 0x09	; 9
    459e:	70 e0       	ldi	r23, 0x00	; 0
    45a0:	0e 94 c2 10 	call	0x2184	; 0x2184 <create_ball_initially>
xfood=xpos;
    45a4:	80 91 8b 00 	lds	r24, 0x008B
    45a8:	80 93 90 00 	sts	0x0090, r24
    45ac:	10 92 91 00 	sts	0x0091, r1
yfood=ypos;
    45b0:	80 91 cf 00 	lds	r24, 0x00CF
    45b4:	80 93 aa 00 	sts	0x00AA, r24
    45b8:	10 92 ab 00 	sts	0x00AB, r1
create_ball_initially(45,12);
    45bc:	8d e2       	ldi	r24, 0x2D	; 45
    45be:	90 e0       	ldi	r25, 0x00	; 0
    45c0:	6c e0       	ldi	r22, 0x0C	; 12
    45c2:	70 e0       	ldi	r23, 0x00	; 0
    45c4:	0e 94 c2 10 	call	0x2184	; 0x2184 <create_ball_initially>
xfood2=xpos;
    45c8:	80 91 8b 00 	lds	r24, 0x008B
    45cc:	80 93 a8 00 	sts	0x00A8, r24
    45d0:	10 92 a9 00 	sts	0x00A9, r1
yfood2=ypos;
    45d4:	80 91 cf 00 	lds	r24, 0x00CF
    45d8:	80 93 98 00 	sts	0x0098, r24
    45dc:	10 92 99 00 	sts	0x0099, r1
// creating the ball
score=0;
    45e0:	10 92 72 00 	sts	0x0072, r1
    45e4:	10 92 71 00 	sts	0x0071, r1

//ERASE and CREATE BLOCK-1 TO BL0CK-2 BRIDGE
ErHBlock(50,7,20);
    45e8:	82 e3       	ldi	r24, 0x32	; 50
    45ea:	90 e0       	ldi	r25, 0x00	; 0
    45ec:	67 e0       	ldi	r22, 0x07	; 7
    45ee:	70 e0       	ldi	r23, 0x00	; 0
    45f0:	44 e1       	ldi	r20, 0x14	; 20
    45f2:	50 e0       	ldi	r21, 0x00	; 0
    45f4:	0e 94 8d 14 	call	0x291a	; 0x291a <ErHBlock>
ErHBlock(50,12,20);
    45f8:	82 e3       	ldi	r24, 0x32	; 50
    45fa:	90 e0       	ldi	r25, 0x00	; 0
    45fc:	6c e0       	ldi	r22, 0x0C	; 12
    45fe:	70 e0       	ldi	r23, 0x00	; 0
    4600:	44 e1       	ldi	r20, 0x14	; 20
    4602:	50 e0       	ldi	r21, 0x00	; 0
    4604:	0e 94 8d 14 	call	0x291a	; 0x291a <ErHBlock>
CrVBlock(49,8,5);
    4608:	81 e3       	ldi	r24, 0x31	; 49
    460a:	90 e0       	ldi	r25, 0x00	; 0
    460c:	68 e0       	ldi	r22, 0x08	; 8
    460e:	70 e0       	ldi	r23, 0x00	; 0
    4610:	45 e0       	ldi	r20, 0x05	; 5
    4612:	50 e0       	ldi	r21, 0x00	; 0
    4614:	0e 94 34 14 	call	0x2868	; 0x2868 <CrVBlock>
CrVBlock(70,8,5);
    4618:	86 e4       	ldi	r24, 0x46	; 70
    461a:	90 e0       	ldi	r25, 0x00	; 0
    461c:	68 e0       	ldi	r22, 0x08	; 8
    461e:	70 e0       	ldi	r23, 0x00	; 0
    4620:	45 e0       	ldi	r20, 0x05	; 5
    4622:	50 e0       	ldi	r21, 0x00	; 0
    4624:	0e 94 34 14 	call	0x2868	; 0x2868 <CrVBlock>
	
//ERASE and CREATE BLOCK-3 TO BL0CK-4 BRIDGE
ErHBlock(50,48,20);
    4628:	82 e3       	ldi	r24, 0x32	; 50
    462a:	90 e0       	ldi	r25, 0x00	; 0
    462c:	60 e3       	ldi	r22, 0x30	; 48
    462e:	70 e0       	ldi	r23, 0x00	; 0
    4630:	44 e1       	ldi	r20, 0x14	; 20
    4632:	50 e0       	ldi	r21, 0x00	; 0
    4634:	0e 94 8d 14 	call	0x291a	; 0x291a <ErHBlock>
ErHBlock(50,53,20);
    4638:	82 e3       	ldi	r24, 0x32	; 50
    463a:	90 e0       	ldi	r25, 0x00	; 0
    463c:	65 e3       	ldi	r22, 0x35	; 53
    463e:	70 e0       	ldi	r23, 0x00	; 0
    4640:	44 e1       	ldi	r20, 0x14	; 20
    4642:	50 e0       	ldi	r21, 0x00	; 0
    4644:	0e 94 8d 14 	call	0x291a	; 0x291a <ErHBlock>
CrVBlock(49,48,5);
    4648:	81 e3       	ldi	r24, 0x31	; 49
    464a:	90 e0       	ldi	r25, 0x00	; 0
    464c:	60 e3       	ldi	r22, 0x30	; 48
    464e:	70 e0       	ldi	r23, 0x00	; 0
    4650:	45 e0       	ldi	r20, 0x05	; 5
    4652:	50 e0       	ldi	r21, 0x00	; 0
    4654:	0e 94 34 14 	call	0x2868	; 0x2868 <CrVBlock>
CrVBlock(70,48,5);
    4658:	86 e4       	ldi	r24, 0x46	; 70
    465a:	90 e0       	ldi	r25, 0x00	; 0
    465c:	60 e3       	ldi	r22, 0x30	; 48
    465e:	70 e0       	ldi	r23, 0x00	; 0
    4660:	45 e0       	ldi	r20, 0x05	; 5
    4662:	50 e0       	ldi	r21, 0x00	; 0
    4664:	0e 94 34 14 	call	0x2868	; 0x2868 <CrVBlock>


//ERASE and CREATE BLOCK-2 TO BL0CK-3 BRIDGE
ErHBlock(57,19,13);
    4668:	89 e3       	ldi	r24, 0x39	; 57
    466a:	90 e0       	ldi	r25, 0x00	; 0
    466c:	63 e1       	ldi	r22, 0x13	; 19
    466e:	70 e0       	ldi	r23, 0x00	; 0
    4670:	4d e0       	ldi	r20, 0x0D	; 13
    4672:	50 e0       	ldi	r21, 0x00	; 0
    4674:	0e 94 8d 14 	call	0x291a	; 0x291a <ErHBlock>
ErHBlock(50,37,9);
    4678:	82 e3       	ldi	r24, 0x32	; 50
    467a:	90 e0       	ldi	r25, 0x00	; 0
    467c:	65 e2       	ldi	r22, 0x25	; 37
    467e:	70 e0       	ldi	r23, 0x00	; 0
    4680:	49 e0       	ldi	r20, 0x09	; 9
    4682:	50 e0       	ldi	r21, 0x00	; 0
    4684:	0e 94 8d 14 	call	0x291a	; 0x291a <ErHBlock>
ErHBlock(50,42,15);
    4688:	82 e3       	ldi	r24, 0x32	; 50
    468a:	90 e0       	ldi	r25, 0x00	; 0
    468c:	6a e2       	ldi	r22, 0x2A	; 42
    468e:	70 e0       	ldi	r23, 0x00	; 0
    4690:	4f e0       	ldi	r20, 0x0F	; 15
    4692:	50 e0       	ldi	r21, 0x00	; 0
    4694:	0e 94 8d 14 	call	0x291a	; 0x291a <ErHBlock>
ErHBlock(63,24,7);
    4698:	8f e3       	ldi	r24, 0x3F	; 63
    469a:	90 e0       	ldi	r25, 0x00	; 0
    469c:	68 e1       	ldi	r22, 0x18	; 24
    469e:	70 e0       	ldi	r23, 0x00	; 0
    46a0:	47 e0       	ldi	r20, 0x07	; 7
    46a2:	50 e0       	ldi	r21, 0x00	; 0
    46a4:	0e 94 8d 14 	call	0x291a	; 0x291a <ErHBlock>
ErVBlock(57,20,19);
    46a8:	89 e3       	ldi	r24, 0x39	; 57
    46aa:	90 e0       	ldi	r25, 0x00	; 0
    46ac:	64 e1       	ldi	r22, 0x14	; 20
    46ae:	70 e0       	ldi	r23, 0x00	; 0
    46b0:	43 e1       	ldi	r20, 0x13	; 19
    46b2:	50 e0       	ldi	r21, 0x00	; 0
    46b4:	0e 94 6f 14 	call	0x28de	; 0x28de <ErVBlock>
ErVBlock(63,24,19);
    46b8:	8f e3       	ldi	r24, 0x3F	; 63
    46ba:	90 e0       	ldi	r25, 0x00	; 0
    46bc:	68 e1       	ldi	r22, 0x18	; 24
    46be:	70 e0       	ldi	r23, 0x00	; 0
    46c0:	43 e1       	ldi	r20, 0x13	; 19
    46c2:	50 e0       	ldi	r21, 0x00	; 0
    46c4:	0e 94 6f 14 	call	0x28de	; 0x28de <ErVBlock>
CrVBlock(70,19,5);
    46c8:	86 e4       	ldi	r24, 0x46	; 70
    46ca:	90 e0       	ldi	r25, 0x00	; 0
    46cc:	63 e1       	ldi	r22, 0x13	; 19
    46ce:	70 e0       	ldi	r23, 0x00	; 0
    46d0:	45 e0       	ldi	r20, 0x05	; 5
    46d2:	50 e0       	ldi	r21, 0x00	; 0
    46d4:	0e 94 34 14 	call	0x2868	; 0x2868 <CrVBlock>
CrVBlock(49,37,5);
    46d8:	81 e3       	ldi	r24, 0x31	; 49
    46da:	90 e0       	ldi	r25, 0x00	; 0
    46dc:	65 e2       	ldi	r22, 0x25	; 37
    46de:	70 e0       	ldi	r23, 0x00	; 0
    46e0:	45 e0       	ldi	r20, 0x05	; 5
    46e2:	50 e0       	ldi	r21, 0x00	; 0
    46e4:	0e 94 34 14 	call	0x2868	; 0x2868 <CrVBlock>

// printing the last block 

ErHBlock(109,51,5);
    46e8:	8d e6       	ldi	r24, 0x6D	; 109
    46ea:	90 e0       	ldi	r25, 0x00	; 0
    46ec:	63 e3       	ldi	r22, 0x33	; 51
    46ee:	70 e0       	ldi	r23, 0x00	; 0
    46f0:	45 e0       	ldi	r20, 0x05	; 5
    46f2:	50 e0       	ldi	r21, 0x00	; 0
    46f4:	0e 94 8d 14 	call	0x291a	; 0x291a <ErHBlock>
ErHBlock(109,56,5);
    46f8:	8d e6       	ldi	r24, 0x6D	; 109
    46fa:	90 e0       	ldi	r25, 0x00	; 0
    46fc:	68 e3       	ldi	r22, 0x38	; 56
    46fe:	70 e0       	ldi	r23, 0x00	; 0
    4700:	45 e0       	ldi	r20, 0x05	; 5
    4702:	50 e0       	ldi	r21, 0x00	; 0
    4704:	0e 94 8d 14 	call	0x291a	; 0x291a <ErHBlock>
CrVBlock(109,51,6);
    4708:	8d e6       	ldi	r24, 0x6D	; 109
    470a:	90 e0       	ldi	r25, 0x00	; 0
    470c:	63 e3       	ldi	r22, 0x33	; 51
    470e:	70 e0       	ldi	r23, 0x00	; 0
    4710:	46 e0       	ldi	r20, 0x06	; 6
    4712:	50 e0       	ldi	r21, 0x00	; 0
    4714:	0e 94 34 14 	call	0x2868	; 0x2868 <CrVBlock>
CrVBlock(113,51,6);
    4718:	81 e7       	ldi	r24, 0x71	; 113
    471a:	90 e0       	ldi	r25, 0x00	; 0
    471c:	63 e3       	ldi	r22, 0x33	; 51
    471e:	70 e0       	ldi	r23, 0x00	; 0
    4720:	46 e0       	ldi	r20, 0x06	; 6
    4722:	50 e0       	ldi	r21, 0x00	; 0
    4724:	0e 94 34 14 	call	0x2868	; 0x2868 <CrVBlock>

// printing L:3
CrHBlock(120,19,5);
    4728:	88 e7       	ldi	r24, 0x78	; 120
    472a:	90 e0       	ldi	r25, 0x00	; 0
    472c:	63 e1       	ldi	r22, 0x13	; 19
    472e:	70 e0       	ldi	r23, 0x00	; 0
    4730:	45 e0       	ldi	r20, 0x05	; 5
    4732:	50 e0       	ldi	r21, 0x00	; 0
    4734:	0e 94 52 14 	call	0x28a4	; 0x28a4 <CrHBlock>
	CrVBlock(124,17,3);
    4738:	8c e7       	ldi	r24, 0x7C	; 124
    473a:	90 e0       	ldi	r25, 0x00	; 0
    473c:	61 e1       	ldi	r22, 0x11	; 17
    473e:	70 e0       	ldi	r23, 0x00	; 0
    4740:	43 e0       	ldi	r20, 0x03	; 3
    4742:	50 e0       	ldi	r21, 0x00	; 0
    4744:	0e 94 34 14 	call	0x2868	; 0x2868 <CrVBlock>
	CrVBlock(121,15,1);
    4748:	89 e7       	ldi	r24, 0x79	; 121
    474a:	90 e0       	ldi	r25, 0x00	; 0
    474c:	6f e0       	ldi	r22, 0x0F	; 15
    474e:	70 e0       	ldi	r23, 0x00	; 0
    4750:	41 e0       	ldi	r20, 0x01	; 1
    4752:	50 e0       	ldi	r21, 0x00	; 0
    4754:	0e 94 34 14 	call	0x2868	; 0x2868 <CrVBlock>
	CrVBlock(123,15,1);
    4758:	8b e7       	ldi	r24, 0x7B	; 123
    475a:	90 e0       	ldi	r25, 0x00	; 0
    475c:	6f e0       	ldi	r22, 0x0F	; 15
    475e:	70 e0       	ldi	r23, 0x00	; 0
    4760:	41 e0       	ldi	r20, 0x01	; 1
    4762:	50 e0       	ldi	r21, 0x00	; 0
    4764:	0e 94 34 14 	call	0x2868	; 0x2868 <CrVBlock>
    print_num(120,10,3);
    4768:	88 e7       	ldi	r24, 0x78	; 120
    476a:	90 e0       	ldi	r25, 0x00	; 0
    476c:	6a e0       	ldi	r22, 0x0A	; 10
    476e:	70 e0       	ldi	r23, 0x00	; 0
    4770:	43 e0       	ldi	r20, 0x03	; 3
    4772:	50 e0       	ldi	r21, 0x00	; 0
    4774:	0e 94 aa 14 	call	0x2954	; 0x2954 <print_num>

create_ball_initially(4,5); 
    4778:	84 e0       	ldi	r24, 0x04	; 4
    477a:	90 e0       	ldi	r25, 0x00	; 0
    477c:	65 e0       	ldi	r22, 0x05	; 5
    477e:	70 e0       	ldi	r23, 0x00	; 0
    4780:	0e 94 c2 10 	call	0x2184	; 0x2184 <create_ball_initially>

check=0;
    4784:	10 92 a4 00 	sts	0x00A4, r1
    4788:	10 92 a3 00 	sts	0x00A3, r1
    time=100;
    478c:	84 e6       	ldi	r24, 0x64	; 100
    478e:	90 e0       	ldi	r25, 0x00	; 0
    4790:	90 93 c1 00 	sts	0x00C1, r25
    4794:	80 93 c0 00 	sts	0x00C0, r24
	test_time=0;
    4798:	10 92 9b 00 	sts	0x009B, r1
    479c:	10 92 9a 00 	sts	0x009A, r1
	d1=0;
    47a0:	10 92 95 00 	sts	0x0095, r1
    47a4:	10 92 94 00 	sts	0x0094, r1
	d2=0;
    47a8:	10 92 b7 00 	sts	0x00B7, r1
    47ac:	10 92 b6 00 	sts	0x00B6, r1
	d3=0;
    47b0:	10 92 e1 00 	sts	0x00E1, r1
    47b4:	10 92 e0 00 	sts	0x00E0, r1
    47b8:	76 ea       	ldi	r23, 0xA6	; 166
    47ba:	a7 2e       	mov	r10, r23
    47bc:	7e e0       	ldi	r23, 0x0E	; 14
    47be:	b7 2e       	mov	r11, r23
Fscore=Fscore+900;
ErVBlock(109,51,6);
ErVBlock(113,51,6);
CrHBlock(109,51,5);
CrHBlock(109,56,5);
event=4;
    47c0:	64 e0       	ldi	r22, 0x04	; 4
    47c2:	86 2e       	mov	r8, r22
    47c4:	91 2c       	mov	r9, r1

// if position of the ball is adjacent to that of food2
 if((xpos==xfood2||xpos+1==xfood2||xpos+2==xfood2||xpos==xfood2+1||xpos+1==xfood2+1||xpos+2==xfood2+1||xpos==xfood2+2||xpos+1==xfood2+2||xpos+2==xfood2+2 )&& (ypos==yfood2||ypos+1==yfood2||ypos+2==yfood2)  && food2==0)//or they are in surroundings)
{clear_ball();
create_ball_initially(xfood2,yfood2);
food2=1;
    47c6:	51 e0       	ldi	r21, 0x01	; 1
    47c8:	e5 2e       	mov	r14, r21
    47ca:	f1 2c       	mov	r15, r1
 yfood=40;
 xfood2=92;
 yfood2=44;
 food=0;
 food2=0;
 event=3;
    47cc:	43 e0       	ldi	r20, 0x03	; 3
    47ce:	64 2e       	mov	r6, r20
    47d0:	71 2c       	mov	r7, r1
 yfood=55;
 xfood2=39;
 yfood2=52;
 food=0;
 food2=0;
 event=2;
    47d2:	32 e0       	ldi	r19, 0x02	; 2
    47d4:	43 2e       	mov	r4, r19
    47d6:	51 2c       	mov	r5, r1


if(xpos>=109&& event==4)
{
time3=time;
	Fscore=Fscore+71*time;
    47d8:	27 e4       	ldi	r18, 0x47	; 71
    47da:	22 2e       	mov	r2, r18
    47dc:	31 2c       	mov	r3, r1
    47de:	ae c7       	rjmp	.+3932   	; 0x573c <main+0x273c>
	test_time=0;
	d1=0;
	d2=0;
	d3=0;
while(level==3)
{check_switch();
    47e0:	0e 94 be 16 	call	0x2d7c	; 0x2d7c <check_switch>
check=surroundings_level3();
    47e4:	0e 94 3a 13 	call	0x2674	; 0x2674 <surroundings_level3>
    47e8:	90 93 a4 00 	sts	0x00A4, r25
    47ec:	80 93 a3 00 	sts	0x00A3, r24
x=read_adc(0);
    47f0:	80 e0       	ldi	r24, 0x00	; 0
    47f2:	0e 94 b5 10 	call	0x216a	; 0x216a <read_adc>
    47f6:	90 93 8f 00 	sts	0x008F, r25
    47fa:	80 93 8e 00 	sts	0x008E, r24
y=read_adc(1);
    47fe:	81 e0       	ldi	r24, 0x01	; 1
    4800:	0e 94 b5 10 	call	0x216a	; 0x216a <read_adc>
    4804:	9c 01       	movw	r18, r24
    4806:	90 93 c3 00 	sts	0x00C3, r25
    480a:	80 93 c2 00 	sts	0x00C2, r24

// condition for moving the ball

 if(y>365 && check%1000>=100 )// moving the ball right with no rebounding conditions
    480e:	51 e0       	ldi	r21, 0x01	; 1
    4810:	8e 36       	cpi	r24, 0x6E	; 110
    4812:	95 07       	cpc	r25, r21
    4814:	7c f1       	brlt	.+94     	; 0x4874 <main+0x1874>
    4816:	80 91 a3 00 	lds	r24, 0x00A3
    481a:	90 91 a4 00 	lds	r25, 0x00A4
    481e:	68 ee       	ldi	r22, 0xE8	; 232
    4820:	73 e0       	ldi	r23, 0x03	; 3
    4822:	0e 94 a7 2b 	call	0x574e	; 0x574e <__divmodhi4>
    4826:	84 36       	cpi	r24, 0x64	; 100
    4828:	91 05       	cpc	r25, r1
    482a:	24 f1       	brlt	.+72     	; 0x4874 <main+0x1874>
  {
  if(event==0 &&xpos+3==48)
    482c:	20 91 be 00 	lds	r18, 0x00BE
    4830:	30 91 bf 00 	lds	r19, 0x00BF
    4834:	21 15       	cp	r18, r1
    4836:	31 05       	cpc	r19, r1
    4838:	21 f4       	brne	.+8      	; 0x4842 <main+0x1842>
    483a:	80 91 8b 00 	lds	r24, 0x008B
    483e:	8d 32       	cpi	r24, 0x2D	; 45
    4840:	b9 f1       	breq	.+110    	; 0x48b0 <main+0x18b0>
  {
  move_ball('s');
  }
  else if(event==2 && xpos+3 >=48 && ypos>=46&& ypos <=52)
    4842:	22 30       	cpi	r18, 0x02	; 2
    4844:	31 05       	cpc	r19, r1
    4846:	61 f4       	brne	.+24     	; 0x4860 <main+0x1860>
    4848:	80 91 8b 00 	lds	r24, 0x008B
    484c:	90 e0       	ldi	r25, 0x00	; 0
    484e:	8d 97       	sbiw	r24, 0x2d	; 45
    4850:	3c f0       	brlt	.+14     	; 0x4860 <main+0x1860>
    4852:	80 91 cf 00 	lds	r24, 0x00CF
    4856:	8e 32       	cpi	r24, 0x2E	; 46
    4858:	50 f0       	brcs	.+20     	; 0x486e <main+0x186e>
    485a:	85 33       	cpi	r24, 0x35	; 53
    485c:	40 f4       	brcc	.+16     	; 0x486e <main+0x186e>
    485e:	28 c0       	rjmp	.+80     	; 0x48b0 <main+0x18b0>
  {
  move_ball('s');
  }
  else if(event==3 && xpos+3 ==108 )
    4860:	23 30       	cpi	r18, 0x03	; 3
    4862:	31 05       	cpc	r19, r1
    4864:	21 f4       	brne	.+8      	; 0x486e <main+0x186e>
    4866:	80 91 8b 00 	lds	r24, 0x008B
    486a:	89 36       	cpi	r24, 0x69	; 105
    486c:	09 f1       	breq	.+66     	; 0x48b0 <main+0x18b0>
  {
  move_ball('s');
  }
  else 
  {
  move_ball('r');
    486e:	82 e7       	ldi	r24, 0x72	; 114
    4870:	90 e0       	ldi	r25, 0x00	; 0
    4872:	23 c0       	rjmp	.+70     	; 0x48ba <main+0x18ba>

  
  }
  
  // moving the ball left with no rebounding conditions
  else if(y<350 && check %10000>=1000 && xpos>=0)
    4874:	2e 55       	subi	r18, 0x5E	; 94
    4876:	31 40       	sbci	r19, 0x01	; 1
    4878:	14 f5       	brge	.+68     	; 0x48be <main+0x18be>
    487a:	80 91 a3 00 	lds	r24, 0x00A3
    487e:	90 91 a4 00 	lds	r25, 0x00A4
    4882:	60 e1       	ldi	r22, 0x10	; 16
    4884:	77 e2       	ldi	r23, 0x27	; 39
    4886:	0e 94 a7 2b 	call	0x574e	; 0x574e <__divmodhi4>
    488a:	88 5e       	subi	r24, 0xE8	; 232
    488c:	93 40       	sbci	r25, 0x03	; 3
    488e:	bc f0       	brlt	.+46     	; 0x48be <main+0x18be>
  {
  if(event==1 && xpos-1==49 && ypos>=46 && ypos<=52)
    4890:	80 91 be 00 	lds	r24, 0x00BE
    4894:	90 91 bf 00 	lds	r25, 0x00BF
    4898:	01 97       	sbiw	r24, 0x01	; 1
    489a:	69 f4       	brne	.+26     	; 0x48b6 <main+0x18b6>
    489c:	80 91 8b 00 	lds	r24, 0x008B
    48a0:	82 33       	cpi	r24, 0x32	; 50
    48a2:	49 f4       	brne	.+18     	; 0x48b6 <main+0x18b6>
    48a4:	80 91 cf 00 	lds	r24, 0x00CF
    48a8:	8e 32       	cpi	r24, 0x2E	; 46
    48aa:	28 f0       	brcs	.+10     	; 0x48b6 <main+0x18b6>
    48ac:	85 33       	cpi	r24, 0x35	; 53
    48ae:	18 f4       	brcc	.+6      	; 0x48b6 <main+0x18b6>
  {
  move_ball('s');
    48b0:	83 e7       	ldi	r24, 0x73	; 115
    48b2:	90 e0       	ldi	r25, 0x00	; 0
    48b4:	02 c0       	rjmp	.+4      	; 0x48ba <main+0x18ba>
  }
  else 
  {
  move_ball('l');
    48b6:	8c e6       	ldi	r24, 0x6C	; 108
    48b8:	90 e0       	ldi	r25, 0x00	; 0
    48ba:	0e 94 38 11 	call	0x2270	; 0x2270 <move_ball>
  }
  
  }
 
  // moving the ball upwards with no rebounding conditions
  if(x>370 && check%10>=1)
    48be:	20 91 8e 00 	lds	r18, 0x008E
    48c2:	30 91 8f 00 	lds	r19, 0x008F
    48c6:	41 e0       	ldi	r20, 0x01	; 1
    48c8:	23 37       	cpi	r18, 0x73	; 115
    48ca:	34 07       	cpc	r19, r20
    48cc:	74 f0       	brlt	.+28     	; 0x48ea <main+0x18ea>
    48ce:	80 91 a3 00 	lds	r24, 0x00A3
    48d2:	90 91 a4 00 	lds	r25, 0x00A4
    48d6:	6a e0       	ldi	r22, 0x0A	; 10
    48d8:	70 e0       	ldi	r23, 0x00	; 0
    48da:	0e 94 a7 2b 	call	0x574e	; 0x574e <__divmodhi4>
    48de:	18 16       	cp	r1, r24
    48e0:	19 06       	cpc	r1, r25
    48e2:	1c f4       	brge	.+6      	; 0x48ea <main+0x18ea>
  {
  move_ball('u');
    48e4:	85 e7       	ldi	r24, 0x75	; 117
    48e6:	90 e0       	ldi	r25, 0x00	; 0
    48e8:	13 c0       	rjmp	.+38     	; 0x4910 <main+0x1910>
 
  
 
 
  // moving ball down wards
  else if(x<350 && check %100 >=10 && ypos<=62)
    48ea:	2e 55       	subi	r18, 0x5E	; 94
    48ec:	31 40       	sbci	r19, 0x01	; 1
    48ee:	94 f4       	brge	.+36     	; 0x4914 <main+0x1914>
    48f0:	80 91 a3 00 	lds	r24, 0x00A3
    48f4:	90 91 a4 00 	lds	r25, 0x00A4
    48f8:	64 e6       	ldi	r22, 0x64	; 100
    48fa:	70 e0       	ldi	r23, 0x00	; 0
    48fc:	0e 94 a7 2b 	call	0x574e	; 0x574e <__divmodhi4>
    4900:	0a 97       	sbiw	r24, 0x0a	; 10
    4902:	44 f0       	brlt	.+16     	; 0x4914 <main+0x1914>
    4904:	80 91 cf 00 	lds	r24, 0x00CF
    4908:	8f 33       	cpi	r24, 0x3F	; 63
    490a:	20 f4       	brcc	.+8      	; 0x4914 <main+0x1914>
  {
  move_ball('d');
    490c:	84 e6       	ldi	r24, 0x64	; 100
    490e:	90 e0       	ldi	r25, 0x00	; 0
    4910:	0e 94 38 11 	call	0x2270	; 0x2270 <move_ball>
    4914:	c5 01       	movw	r24, r10
    4916:	01 97       	sbiw	r24, 0x01	; 1
    4918:	f1 f7       	brne	.-4      	; 0x4916 <main+0x1916>





if(event==0)
    491a:	80 91 be 00 	lds	r24, 0x00BE
    491e:	90 91 bf 00 	lds	r25, 0x00BF
    4922:	00 97       	sbiw	r24, 0x00	; 0
    4924:	09 f0       	breq	.+2      	; 0x4928 <main+0x1928>
    4926:	26 c1       	rjmp	.+588    	; 0x4b74 <main+0x1b74>
{
// if position of the ball is adjacent to that of food1
if((xpos==xfood||xpos+1==xfood||xpos+2==xfood||xpos==xfood+1||xpos+1==xfood+1||xpos+2==xfood+1||xpos==xfood+2||xpos+1==xfood+2||xpos+2==xfood+2 )&& (ypos==yfood||ypos+1==yfood||ypos+2==yfood) && food==0 )//or they are in surroundings)
    4928:	80 91 8b 00 	lds	r24, 0x008B
    492c:	48 2f       	mov	r20, r24
    492e:	50 e0       	ldi	r21, 0x00	; 0
    4930:	20 91 90 00 	lds	r18, 0x0090
    4934:	30 91 91 00 	lds	r19, 0x0091
    4938:	42 17       	cp	r20, r18
    493a:	53 07       	cpc	r21, r19
    493c:	c9 f0       	breq	.+50     	; 0x4970 <main+0x1970>
    493e:	ca 01       	movw	r24, r20
    4940:	01 96       	adiw	r24, 0x01	; 1
    4942:	82 17       	cp	r24, r18
    4944:	93 07       	cpc	r25, r19
    4946:	a1 f0       	breq	.+40     	; 0x4970 <main+0x1970>
    4948:	ca 01       	movw	r24, r20
    494a:	02 96       	adiw	r24, 0x02	; 2
    494c:	82 17       	cp	r24, r18
    494e:	93 07       	cpc	r25, r19
    4950:	79 f0       	breq	.+30     	; 0x4970 <main+0x1970>
    4952:	c9 01       	movw	r24, r18
    4954:	01 96       	adiw	r24, 0x01	; 1
    4956:	48 17       	cp	r20, r24
    4958:	59 07       	cpc	r21, r25
    495a:	51 f0       	breq	.+20     	; 0x4970 <main+0x1970>
    495c:	c9 01       	movw	r24, r18
    495e:	01 97       	sbiw	r24, 0x01	; 1
    4960:	48 17       	cp	r20, r24
    4962:	59 07       	cpc	r21, r25
    4964:	29 f0       	breq	.+10     	; 0x4970 <main+0x1970>
    4966:	2e 5f       	subi	r18, 0xFE	; 254
    4968:	3f 4f       	sbci	r19, 0xFF	; 255
    496a:	42 17       	cp	r20, r18
    496c:	53 07       	cpc	r21, r19
    496e:	c9 f5       	brne	.+114    	; 0x49e2 <main+0x19e2>
    4970:	80 91 cf 00 	lds	r24, 0x00CF
    4974:	28 2f       	mov	r18, r24
    4976:	30 e0       	ldi	r19, 0x00	; 0
    4978:	40 91 aa 00 	lds	r20, 0x00AA
    497c:	50 91 ab 00 	lds	r21, 0x00AB
    4980:	24 17       	cp	r18, r20
    4982:	35 07       	cpc	r19, r21
    4984:	51 f0       	breq	.+20     	; 0x499a <main+0x199a>
    4986:	c9 01       	movw	r24, r18
    4988:	01 96       	adiw	r24, 0x01	; 1
    498a:	84 17       	cp	r24, r20
    498c:	95 07       	cpc	r25, r21
    498e:	29 f0       	breq	.+10     	; 0x499a <main+0x199a>
    4990:	2e 5f       	subi	r18, 0xFE	; 254
    4992:	3f 4f       	sbci	r19, 0xFF	; 255
    4994:	24 17       	cp	r18, r20
    4996:	35 07       	cpc	r19, r21
    4998:	21 f5       	brne	.+72     	; 0x49e2 <main+0x19e2>
    499a:	80 91 7d 00 	lds	r24, 0x007D
    499e:	90 91 7e 00 	lds	r25, 0x007E
    49a2:	89 2b       	or	r24, r25
    49a4:	f1 f4       	brne	.+60     	; 0x49e2 <main+0x19e2>
     
{clear_ball();
    49a6:	0e 94 ea 10 	call	0x21d4	; 0x21d4 <clear_ball>
create_ball_initially(xfood,yfood);
    49aa:	60 91 aa 00 	lds	r22, 0x00AA
    49ae:	70 91 ab 00 	lds	r23, 0x00AB
    49b2:	80 91 90 00 	lds	r24, 0x0090
    49b6:	90 91 91 00 	lds	r25, 0x0091
    49ba:	0e 94 c2 10 	call	0x2184	; 0x2184 <create_ball_initially>
clear_ball();
    49be:	0e 94 ea 10 	call	0x21d4	; 0x21d4 <clear_ball>
create_ball_initially(xfood,yfood-1);
    49c2:	60 91 aa 00 	lds	r22, 0x00AA
    49c6:	70 91 ab 00 	lds	r23, 0x00AB
    49ca:	61 50       	subi	r22, 0x01	; 1
    49cc:	70 40       	sbci	r23, 0x00	; 0
    49ce:	80 91 90 00 	lds	r24, 0x0090
    49d2:	90 91 91 00 	lds	r25, 0x0091
    49d6:	0e 94 c2 10 	call	0x2184	; 0x2184 <create_ball_initially>

food=1;
    49da:	f0 92 7e 00 	sts	0x007E, r15
    49de:	e0 92 7d 00 	sts	0x007D, r14
}

// if position of the ball is adjacent to that of food2
 if((xpos==xfood2||xpos+1==xfood2||xpos+2==xfood2||xpos==xfood2+1||xpos+1==xfood2+1||xpos+2==xfood2+1||xpos==xfood2+2||xpos+1==xfood2+2||xpos+2==xfood2+2 )&& (ypos==yfood2||ypos+1==yfood2||ypos+2==yfood2) && food2==0 )//or they are in surroundings)
    49e2:	80 91 8b 00 	lds	r24, 0x008B
    49e6:	48 2f       	mov	r20, r24
    49e8:	50 e0       	ldi	r21, 0x00	; 0
    49ea:	20 91 a8 00 	lds	r18, 0x00A8
    49ee:	30 91 a9 00 	lds	r19, 0x00A9
    49f2:	42 17       	cp	r20, r18
    49f4:	53 07       	cpc	r21, r19
    49f6:	c9 f0       	breq	.+50     	; 0x4a2a <main+0x1a2a>
    49f8:	ca 01       	movw	r24, r20
    49fa:	01 96       	adiw	r24, 0x01	; 1
    49fc:	82 17       	cp	r24, r18
    49fe:	93 07       	cpc	r25, r19
    4a00:	a1 f0       	breq	.+40     	; 0x4a2a <main+0x1a2a>
    4a02:	ca 01       	movw	r24, r20
    4a04:	02 96       	adiw	r24, 0x02	; 2
    4a06:	82 17       	cp	r24, r18
    4a08:	93 07       	cpc	r25, r19
    4a0a:	79 f0       	breq	.+30     	; 0x4a2a <main+0x1a2a>
    4a0c:	c9 01       	movw	r24, r18
    4a0e:	01 96       	adiw	r24, 0x01	; 1
    4a10:	48 17       	cp	r20, r24
    4a12:	59 07       	cpc	r21, r25
    4a14:	51 f0       	breq	.+20     	; 0x4a2a <main+0x1a2a>
    4a16:	c9 01       	movw	r24, r18
    4a18:	01 97       	sbiw	r24, 0x01	; 1
    4a1a:	48 17       	cp	r20, r24
    4a1c:	59 07       	cpc	r21, r25
    4a1e:	29 f0       	breq	.+10     	; 0x4a2a <main+0x1a2a>
    4a20:	2e 5f       	subi	r18, 0xFE	; 254
    4a22:	3f 4f       	sbci	r19, 0xFF	; 255
    4a24:	42 17       	cp	r20, r18
    4a26:	53 07       	cpc	r21, r19
    4a28:	59 f5       	brne	.+86     	; 0x4a80 <main+0x1a80>
    4a2a:	80 91 cf 00 	lds	r24, 0x00CF
    4a2e:	28 2f       	mov	r18, r24
    4a30:	30 e0       	ldi	r19, 0x00	; 0
    4a32:	40 91 98 00 	lds	r20, 0x0098
    4a36:	50 91 99 00 	lds	r21, 0x0099
    4a3a:	24 17       	cp	r18, r20
    4a3c:	35 07       	cpc	r19, r21
    4a3e:	51 f0       	breq	.+20     	; 0x4a54 <main+0x1a54>
    4a40:	c9 01       	movw	r24, r18
    4a42:	01 96       	adiw	r24, 0x01	; 1
    4a44:	84 17       	cp	r24, r20
    4a46:	95 07       	cpc	r25, r21
    4a48:	29 f0       	breq	.+10     	; 0x4a54 <main+0x1a54>
    4a4a:	2e 5f       	subi	r18, 0xFE	; 254
    4a4c:	3f 4f       	sbci	r19, 0xFF	; 255
    4a4e:	24 17       	cp	r18, r20
    4a50:	35 07       	cpc	r19, r21
    4a52:	b1 f4       	brne	.+44     	; 0x4a80 <main+0x1a80>
    4a54:	80 91 9f 00 	lds	r24, 0x009F
    4a58:	90 91 a0 00 	lds	r25, 0x00A0
    4a5c:	89 2b       	or	r24, r25
    4a5e:	81 f4       	brne	.+32     	; 0x4a80 <main+0x1a80>
{clear_ball();
    4a60:	0e 94 ea 10 	call	0x21d4	; 0x21d4 <clear_ball>
create_ball_initially(xfood2,yfood2);
    4a64:	60 91 98 00 	lds	r22, 0x0098
    4a68:	70 91 99 00 	lds	r23, 0x0099
    4a6c:	80 91 a8 00 	lds	r24, 0x00A8
    4a70:	90 91 a9 00 	lds	r25, 0x00A9
    4a74:	0e 94 c2 10 	call	0x2184	; 0x2184 <create_ball_initially>
food2=1;
    4a78:	f0 92 a0 00 	sts	0x00A0, r15
    4a7c:	e0 92 9f 00 	sts	0x009F, r14
}
if(food==1 && food2==1)
    4a80:	80 91 7d 00 	lds	r24, 0x007D
    4a84:	90 91 7e 00 	lds	r25, 0x007E
    4a88:	01 97       	sbiw	r24, 0x01	; 1
    4a8a:	09 f0       	breq	.+2      	; 0x4a8e <main+0x1a8e>
    4a8c:	7e c3       	rjmp	.+1788   	; 0x518a <main+0x218a>
    4a8e:	c0 91 9f 00 	lds	r28, 0x009F
    4a92:	d0 91 a0 00 	lds	r29, 0x00A0
    4a96:	c1 30       	cpi	r28, 0x01	; 1
    4a98:	d1 05       	cpc	r29, r1
    4a9a:	09 f0       	breq	.+2      	; 0x4a9e <main+0x1a9e>
    4a9c:	76 c3       	rjmp	.+1772   	; 0x518a <main+0x218a>
{

// creating the path
 ErVBlock(49,7,5);
    4a9e:	81 e3       	ldi	r24, 0x31	; 49
    4aa0:	90 e0       	ldi	r25, 0x00	; 0
    4aa2:	67 e0       	ldi	r22, 0x07	; 7
    4aa4:	70 e0       	ldi	r23, 0x00	; 0
    4aa6:	45 e0       	ldi	r20, 0x05	; 5
    4aa8:	50 e0       	ldi	r21, 0x00	; 0
    4aaa:	0e 94 6f 14 	call	0x28de	; 0x28de <ErVBlock>
 ErVBlock(70,7,5);
    4aae:	86 e4       	ldi	r24, 0x46	; 70
    4ab0:	90 e0       	ldi	r25, 0x00	; 0
    4ab2:	67 e0       	ldi	r22, 0x07	; 7
    4ab4:	70 e0       	ldi	r23, 0x00	; 0
    4ab6:	45 e0       	ldi	r20, 0x05	; 5
    4ab8:	50 e0       	ldi	r21, 0x00	; 0
    4aba:	0e 94 6f 14 	call	0x28de	; 0x28de <ErVBlock>
 CrHBlock(49,7,22);
    4abe:	81 e3       	ldi	r24, 0x31	; 49
    4ac0:	90 e0       	ldi	r25, 0x00	; 0
    4ac2:	67 e0       	ldi	r22, 0x07	; 7
    4ac4:	70 e0       	ldi	r23, 0x00	; 0
    4ac6:	46 e1       	ldi	r20, 0x16	; 22
    4ac8:	50 e0       	ldi	r21, 0x00	; 0
    4aca:	0e 94 52 14 	call	0x28a4	; 0x28a4 <CrHBlock>
 CrHBlock(49,12,22);
    4ace:	81 e3       	ldi	r24, 0x31	; 49
    4ad0:	90 e0       	ldi	r25, 0x00	; 0
    4ad2:	6c e0       	ldi	r22, 0x0C	; 12
    4ad4:	70 e0       	ldi	r23, 0x00	; 0
    4ad6:	46 e1       	ldi	r20, 0x16	; 22
    4ad8:	50 e0       	ldi	r21, 0x00	; 0
    4ada:	0e 94 52 14 	call	0x28a4	; 0x28a4 <CrHBlock>
 // creating new food positions 
 xfood=xpos;// temporarily storing the positions
    4ade:	80 91 8b 00 	lds	r24, 0x008B
    4ae2:	80 93 90 00 	sts	0x0090, r24
    4ae6:	10 92 91 00 	sts	0x0091, r1
 yfood=ypos;
    4aea:	80 91 cf 00 	lds	r24, 0x00CF
    4aee:	80 93 aa 00 	sts	0x00AA, r24
    4af2:	10 92 ab 00 	sts	0x00AB, r1
 create_ball_initially(79,19);
    4af6:	8f e4       	ldi	r24, 0x4F	; 79
    4af8:	90 e0       	ldi	r25, 0x00	; 0
    4afa:	63 e1       	ldi	r22, 0x13	; 19
    4afc:	70 e0       	ldi	r23, 0x00	; 0
    4afe:	0e 94 c2 10 	call	0x2184	; 0x2184 <create_ball_initially>
 create_ball_initially(99,18);
    4b02:	83 e6       	ldi	r24, 0x63	; 99
    4b04:	90 e0       	ldi	r25, 0x00	; 0
    4b06:	62 e1       	ldi	r22, 0x12	; 18
    4b08:	70 e0       	ldi	r23, 0x00	; 0
    4b0a:	0e 94 c2 10 	call	0x2184	; 0x2184 <create_ball_initially>
 xpos=xfood;// storing the positions back 
    4b0e:	80 91 90 00 	lds	r24, 0x0090
    4b12:	80 93 8b 00 	sts	0x008B, r24
 ypos=yfood;
    4b16:	80 91 aa 00 	lds	r24, 0x00AA
    4b1a:	80 93 cf 00 	sts	0x00CF, r24
 xfood=79;
    4b1e:	8f e4       	ldi	r24, 0x4F	; 79
    4b20:	90 e0       	ldi	r25, 0x00	; 0
    4b22:	90 93 91 00 	sts	0x0091, r25
    4b26:	80 93 90 00 	sts	0x0090, r24
 yfood=19;
    4b2a:	83 e1       	ldi	r24, 0x13	; 19
    4b2c:	90 e0       	ldi	r25, 0x00	; 0
    4b2e:	90 93 ab 00 	sts	0x00AB, r25
    4b32:	80 93 aa 00 	sts	0x00AA, r24
 xfood2=99;
    4b36:	83 e6       	ldi	r24, 0x63	; 99
    4b38:	90 e0       	ldi	r25, 0x00	; 0
    4b3a:	90 93 a9 00 	sts	0x00A9, r25
    4b3e:	80 93 a8 00 	sts	0x00A8, r24
 yfood2=18;
    4b42:	82 e1       	ldi	r24, 0x12	; 18
    4b44:	90 e0       	ldi	r25, 0x00	; 0
    4b46:	90 93 99 00 	sts	0x0099, r25
    4b4a:	80 93 98 00 	sts	0x0098, r24
 food=0;
    4b4e:	10 92 7e 00 	sts	0x007E, r1
    4b52:	10 92 7d 00 	sts	0x007D, r1
 food2=0;
    4b56:	10 92 a0 00 	sts	0x00A0, r1
    4b5a:	10 92 9f 00 	sts	0x009F, r1
 event=1;
    4b5e:	d0 93 bf 00 	sts	0x00BF, r29
    4b62:	c0 93 be 00 	sts	0x00BE, r28
 Fscore=Fscore+300;
    4b66:	80 91 6f 00 	lds	r24, 0x006F
    4b6a:	90 91 70 00 	lds	r25, 0x0070
    4b6e:	84 5d       	subi	r24, 0xD4	; 212
    4b70:	9e 4f       	sbci	r25, 0xFE	; 254
    4b72:	2b c2       	rjmp	.+1110   	; 0x4fca <main+0x1fca>

}


}// end of if event ==0
else if(event==1)
    4b74:	81 30       	cpi	r24, 0x01	; 1
    4b76:	91 05       	cpc	r25, r1
    4b78:	09 f0       	breq	.+2      	; 0x4b7c <main+0x1b7c>
    4b7a:	0d c1       	rjmp	.+538    	; 0x4d96 <main+0x1d96>
{

// if position of the ball is adjacent to that of food1
if((xpos==xfood||xpos+1==xfood||xpos+2==xfood)&& (ypos==yfood||ypos+1==yfood||ypos+2==yfood) )//or they are in surroundings)
    4b7c:	80 91 8b 00 	lds	r24, 0x008B
    4b80:	28 2f       	mov	r18, r24
    4b82:	30 e0       	ldi	r19, 0x00	; 0
    4b84:	40 91 90 00 	lds	r20, 0x0090
    4b88:	50 91 91 00 	lds	r21, 0x0091
    4b8c:	24 17       	cp	r18, r20
    4b8e:	35 07       	cpc	r19, r21
    4b90:	51 f0       	breq	.+20     	; 0x4ba6 <main+0x1ba6>
    4b92:	c9 01       	movw	r24, r18
    4b94:	01 96       	adiw	r24, 0x01	; 1
    4b96:	84 17       	cp	r24, r20
    4b98:	95 07       	cpc	r25, r21
    4b9a:	29 f0       	breq	.+10     	; 0x4ba6 <main+0x1ba6>
    4b9c:	2e 5f       	subi	r18, 0xFE	; 254
    4b9e:	3f 4f       	sbci	r19, 0xFF	; 255
    4ba0:	24 17       	cp	r18, r20
    4ba2:	35 07       	cpc	r19, r21
    4ba4:	29 f5       	brne	.+74     	; 0x4bf0 <main+0x1bf0>
    4ba6:	80 91 cf 00 	lds	r24, 0x00CF
    4baa:	28 2f       	mov	r18, r24
    4bac:	30 e0       	ldi	r19, 0x00	; 0
    4bae:	40 91 aa 00 	lds	r20, 0x00AA
    4bb2:	50 91 ab 00 	lds	r21, 0x00AB
    4bb6:	24 17       	cp	r18, r20
    4bb8:	35 07       	cpc	r19, r21
    4bba:	51 f0       	breq	.+20     	; 0x4bd0 <main+0x1bd0>
    4bbc:	c9 01       	movw	r24, r18
    4bbe:	01 96       	adiw	r24, 0x01	; 1
    4bc0:	84 17       	cp	r24, r20
    4bc2:	95 07       	cpc	r25, r21
    4bc4:	29 f0       	breq	.+10     	; 0x4bd0 <main+0x1bd0>
    4bc6:	2e 5f       	subi	r18, 0xFE	; 254
    4bc8:	3f 4f       	sbci	r19, 0xFF	; 255
    4bca:	24 17       	cp	r18, r20
    4bcc:	35 07       	cpc	r19, r21
    4bce:	81 f4       	brne	.+32     	; 0x4bf0 <main+0x1bf0>
     
{clear_ball();
    4bd0:	0e 94 ea 10 	call	0x21d4	; 0x21d4 <clear_ball>
create_ball_initially(xfood,yfood);
    4bd4:	60 91 aa 00 	lds	r22, 0x00AA
    4bd8:	70 91 ab 00 	lds	r23, 0x00AB
    4bdc:	80 91 90 00 	lds	r24, 0x0090
    4be0:	90 91 91 00 	lds	r25, 0x0091
    4be4:	0e 94 c2 10 	call	0x2184	; 0x2184 <create_ball_initially>
food=1;
    4be8:	f0 92 7e 00 	sts	0x007E, r15
    4bec:	e0 92 7d 00 	sts	0x007D, r14
}

// if position of the ball is adjacent to that of food2
if((xpos==xfood2||xpos+1==xfood2||xpos+2==xfood2)&& (ypos==yfood2||ypos+1==yfood2||ypos+2==yfood2) )//or they are in surroundings)
    4bf0:	80 91 8b 00 	lds	r24, 0x008B
    4bf4:	28 2f       	mov	r18, r24
    4bf6:	30 e0       	ldi	r19, 0x00	; 0
    4bf8:	40 91 a8 00 	lds	r20, 0x00A8
    4bfc:	50 91 a9 00 	lds	r21, 0x00A9
    4c00:	24 17       	cp	r18, r20
    4c02:	35 07       	cpc	r19, r21
    4c04:	51 f0       	breq	.+20     	; 0x4c1a <main+0x1c1a>
    4c06:	c9 01       	movw	r24, r18
    4c08:	01 96       	adiw	r24, 0x01	; 1
    4c0a:	84 17       	cp	r24, r20
    4c0c:	95 07       	cpc	r25, r21
    4c0e:	29 f0       	breq	.+10     	; 0x4c1a <main+0x1c1a>
    4c10:	2e 5f       	subi	r18, 0xFE	; 254
    4c12:	3f 4f       	sbci	r19, 0xFF	; 255
    4c14:	24 17       	cp	r18, r20
    4c16:	35 07       	cpc	r19, r21
    4c18:	29 f5       	brne	.+74     	; 0x4c64 <main+0x1c64>
    4c1a:	80 91 cf 00 	lds	r24, 0x00CF
    4c1e:	28 2f       	mov	r18, r24
    4c20:	30 e0       	ldi	r19, 0x00	; 0
    4c22:	40 91 98 00 	lds	r20, 0x0098
    4c26:	50 91 99 00 	lds	r21, 0x0099
    4c2a:	24 17       	cp	r18, r20
    4c2c:	35 07       	cpc	r19, r21
    4c2e:	51 f0       	breq	.+20     	; 0x4c44 <main+0x1c44>
    4c30:	c9 01       	movw	r24, r18
    4c32:	01 96       	adiw	r24, 0x01	; 1
    4c34:	84 17       	cp	r24, r20
    4c36:	95 07       	cpc	r25, r21
    4c38:	29 f0       	breq	.+10     	; 0x4c44 <main+0x1c44>
    4c3a:	2e 5f       	subi	r18, 0xFE	; 254
    4c3c:	3f 4f       	sbci	r19, 0xFF	; 255
    4c3e:	24 17       	cp	r18, r20
    4c40:	35 07       	cpc	r19, r21
    4c42:	81 f4       	brne	.+32     	; 0x4c64 <main+0x1c64>
     
{clear_ball();
    4c44:	0e 94 ea 10 	call	0x21d4	; 0x21d4 <clear_ball>
create_ball_initially(xfood2,yfood2);
    4c48:	60 91 98 00 	lds	r22, 0x0098
    4c4c:	70 91 99 00 	lds	r23, 0x0099
    4c50:	80 91 a8 00 	lds	r24, 0x00A8
    4c54:	90 91 a9 00 	lds	r25, 0x00A9
    4c58:	0e 94 c2 10 	call	0x2184	; 0x2184 <create_ball_initially>
food2=1;
    4c5c:	f0 92 a0 00 	sts	0x00A0, r15
    4c60:	e0 92 9f 00 	sts	0x009F, r14
}
if(food==1&& food2==1)
    4c64:	80 91 7d 00 	lds	r24, 0x007D
    4c68:	90 91 7e 00 	lds	r25, 0x007E
    4c6c:	01 97       	sbiw	r24, 0x01	; 1
    4c6e:	09 f0       	breq	.+2      	; 0x4c72 <main+0x1c72>
    4c70:	8c c2       	rjmp	.+1304   	; 0x518a <main+0x218a>
    4c72:	80 91 9f 00 	lds	r24, 0x009F
    4c76:	90 91 a0 00 	lds	r25, 0x00A0
    4c7a:	01 97       	sbiw	r24, 0x01	; 1
    4c7c:	09 f0       	breq	.+2      	; 0x4c80 <main+0x1c80>
    4c7e:	85 c2       	rjmp	.+1290   	; 0x518a <main+0x218a>
{

// creating the path
 CrHBlock(57,19,14);
    4c80:	89 e3       	ldi	r24, 0x39	; 57
    4c82:	90 e0       	ldi	r25, 0x00	; 0
    4c84:	63 e1       	ldi	r22, 0x13	; 19
    4c86:	70 e0       	ldi	r23, 0x00	; 0
    4c88:	4e e0       	ldi	r20, 0x0E	; 14
    4c8a:	50 e0       	ldi	r21, 0x00	; 0
    4c8c:	0e 94 52 14 	call	0x28a4	; 0x28a4 <CrHBlock>
CrHBlock(49,37,9);
    4c90:	81 e3       	ldi	r24, 0x31	; 49
    4c92:	90 e0       	ldi	r25, 0x00	; 0
    4c94:	65 e2       	ldi	r22, 0x25	; 37
    4c96:	70 e0       	ldi	r23, 0x00	; 0
    4c98:	49 e0       	ldi	r20, 0x09	; 9
    4c9a:	50 e0       	ldi	r21, 0x00	; 0
    4c9c:	0e 94 52 14 	call	0x28a4	; 0x28a4 <CrHBlock>
CrHBlock(49,42,15);
    4ca0:	81 e3       	ldi	r24, 0x31	; 49
    4ca2:	90 e0       	ldi	r25, 0x00	; 0
    4ca4:	6a e2       	ldi	r22, 0x2A	; 42
    4ca6:	70 e0       	ldi	r23, 0x00	; 0
    4ca8:	4f e0       	ldi	r20, 0x0F	; 15
    4caa:	50 e0       	ldi	r21, 0x00	; 0
    4cac:	0e 94 52 14 	call	0x28a4	; 0x28a4 <CrHBlock>
CrHBlock(63,24,7);
    4cb0:	8f e3       	ldi	r24, 0x3F	; 63
    4cb2:	90 e0       	ldi	r25, 0x00	; 0
    4cb4:	68 e1       	ldi	r22, 0x18	; 24
    4cb6:	70 e0       	ldi	r23, 0x00	; 0
    4cb8:	47 e0       	ldi	r20, 0x07	; 7
    4cba:	50 e0       	ldi	r21, 0x00	; 0
    4cbc:	0e 94 52 14 	call	0x28a4	; 0x28a4 <CrHBlock>
CrVBlock(57,20,18);
    4cc0:	89 e3       	ldi	r24, 0x39	; 57
    4cc2:	90 e0       	ldi	r25, 0x00	; 0
    4cc4:	64 e1       	ldi	r22, 0x14	; 20
    4cc6:	70 e0       	ldi	r23, 0x00	; 0
    4cc8:	42 e1       	ldi	r20, 0x12	; 18
    4cca:	50 e0       	ldi	r21, 0x00	; 0
    4ccc:	0e 94 34 14 	call	0x2868	; 0x2868 <CrVBlock>
CrVBlock(63,24,19);
    4cd0:	8f e3       	ldi	r24, 0x3F	; 63
    4cd2:	90 e0       	ldi	r25, 0x00	; 0
    4cd4:	68 e1       	ldi	r22, 0x18	; 24
    4cd6:	70 e0       	ldi	r23, 0x00	; 0
    4cd8:	43 e1       	ldi	r20, 0x13	; 19
    4cda:	50 e0       	ldi	r21, 0x00	; 0
    4cdc:	0e 94 34 14 	call	0x2868	; 0x2868 <CrVBlock>
ErVBlock(70,20,4);
    4ce0:	86 e4       	ldi	r24, 0x46	; 70
    4ce2:	90 e0       	ldi	r25, 0x00	; 0
    4ce4:	64 e1       	ldi	r22, 0x14	; 20
    4ce6:	70 e0       	ldi	r23, 0x00	; 0
    4ce8:	44 e0       	ldi	r20, 0x04	; 4
    4cea:	50 e0       	ldi	r21, 0x00	; 0
    4cec:	0e 94 6f 14 	call	0x28de	; 0x28de <ErVBlock>
ErVBlock(49,38,4);
    4cf0:	81 e3       	ldi	r24, 0x31	; 49
    4cf2:	90 e0       	ldi	r25, 0x00	; 0
    4cf4:	66 e2       	ldi	r22, 0x26	; 38
    4cf6:	70 e0       	ldi	r23, 0x00	; 0
    4cf8:	44 e0       	ldi	r20, 0x04	; 4
    4cfa:	50 e0       	ldi	r21, 0x00	; 0
    4cfc:	0e 94 6f 14 	call	0x28de	; 0x28de <ErVBlock>
 // creating new food positions 
 xfood=xpos;// temporarily storing the positions
    4d00:	80 91 8b 00 	lds	r24, 0x008B
    4d04:	80 93 90 00 	sts	0x0090, r24
    4d08:	10 92 91 00 	sts	0x0091, r1
 yfood=ypos;
    4d0c:	80 91 cf 00 	lds	r24, 0x00CF
    4d10:	80 93 aa 00 	sts	0x00AA, r24
    4d14:	10 92 ab 00 	sts	0x00AB, r1
 create_ball_initially(12,55);
    4d18:	8c e0       	ldi	r24, 0x0C	; 12
    4d1a:	90 e0       	ldi	r25, 0x00	; 0
    4d1c:	67 e3       	ldi	r22, 0x37	; 55
    4d1e:	70 e0       	ldi	r23, 0x00	; 0
    4d20:	0e 94 c2 10 	call	0x2184	; 0x2184 <create_ball_initially>
 create_ball_initially(39,52);
    4d24:	87 e2       	ldi	r24, 0x27	; 39
    4d26:	90 e0       	ldi	r25, 0x00	; 0
    4d28:	64 e3       	ldi	r22, 0x34	; 52
    4d2a:	70 e0       	ldi	r23, 0x00	; 0
    4d2c:	0e 94 c2 10 	call	0x2184	; 0x2184 <create_ball_initially>
 xpos=xfood;// storing the positions back 
    4d30:	80 91 90 00 	lds	r24, 0x0090
    4d34:	80 93 8b 00 	sts	0x008B, r24
 ypos=yfood;
    4d38:	80 91 aa 00 	lds	r24, 0x00AA
    4d3c:	80 93 cf 00 	sts	0x00CF, r24
 xfood=12;
    4d40:	8c e0       	ldi	r24, 0x0C	; 12
    4d42:	90 e0       	ldi	r25, 0x00	; 0
    4d44:	90 93 91 00 	sts	0x0091, r25
    4d48:	80 93 90 00 	sts	0x0090, r24
 yfood=55;
    4d4c:	87 e3       	ldi	r24, 0x37	; 55
    4d4e:	90 e0       	ldi	r25, 0x00	; 0
    4d50:	90 93 ab 00 	sts	0x00AB, r25
    4d54:	80 93 aa 00 	sts	0x00AA, r24
 xfood2=39;
    4d58:	87 e2       	ldi	r24, 0x27	; 39
    4d5a:	90 e0       	ldi	r25, 0x00	; 0
    4d5c:	90 93 a9 00 	sts	0x00A9, r25
    4d60:	80 93 a8 00 	sts	0x00A8, r24
 yfood2=52;
    4d64:	84 e3       	ldi	r24, 0x34	; 52
    4d66:	90 e0       	ldi	r25, 0x00	; 0
    4d68:	90 93 99 00 	sts	0x0099, r25
    4d6c:	80 93 98 00 	sts	0x0098, r24
 food=0;
    4d70:	10 92 7e 00 	sts	0x007E, r1
    4d74:	10 92 7d 00 	sts	0x007D, r1
 food2=0;
    4d78:	10 92 a0 00 	sts	0x00A0, r1
    4d7c:	10 92 9f 00 	sts	0x009F, r1
 event=2;
    4d80:	50 92 bf 00 	sts	0x00BF, r5
    4d84:	40 92 be 00 	sts	0x00BE, r4
 Fscore=Fscore+500;
    4d88:	80 91 6f 00 	lds	r24, 0x006F
    4d8c:	90 91 70 00 	lds	r25, 0x0070
    4d90:	8c 50       	subi	r24, 0x0C	; 12
    4d92:	9e 4f       	sbci	r25, 0xFE	; 254
    4d94:	1a c1       	rjmp	.+564    	; 0x4fca <main+0x1fca>

}

}// end of event ==2

else if(event==2)
    4d96:	82 30       	cpi	r24, 0x02	; 2
    4d98:	91 05       	cpc	r25, r1
    4d9a:	09 f0       	breq	.+2      	; 0x4d9e <main+0x1d9e>
    4d9c:	1b c1       	rjmp	.+566    	; 0x4fd4 <main+0x1fd4>
{
// if position of the ball is adjacent to that of food1
if((xpos==xfood||xpos+1==xfood||xpos+2==xfood||xpos==xfood+1||xpos+1==xfood+1||xpos+2==xfood+1||xpos==xfood+2||xpos+1==xfood+2||xpos+2==xfood+2 )&& (ypos==yfood||ypos+1==yfood||ypos+2==yfood) && food==0 )//or they are in surroundings)
    4d9e:	80 91 8b 00 	lds	r24, 0x008B
    4da2:	48 2f       	mov	r20, r24
    4da4:	50 e0       	ldi	r21, 0x00	; 0
    4da6:	20 91 90 00 	lds	r18, 0x0090
    4daa:	30 91 91 00 	lds	r19, 0x0091
    4dae:	42 17       	cp	r20, r18
    4db0:	53 07       	cpc	r21, r19
    4db2:	c9 f0       	breq	.+50     	; 0x4de6 <main+0x1de6>
    4db4:	ca 01       	movw	r24, r20
    4db6:	01 96       	adiw	r24, 0x01	; 1
    4db8:	82 17       	cp	r24, r18
    4dba:	93 07       	cpc	r25, r19
    4dbc:	a1 f0       	breq	.+40     	; 0x4de6 <main+0x1de6>
    4dbe:	ca 01       	movw	r24, r20
    4dc0:	02 96       	adiw	r24, 0x02	; 2
    4dc2:	82 17       	cp	r24, r18
    4dc4:	93 07       	cpc	r25, r19
    4dc6:	79 f0       	breq	.+30     	; 0x4de6 <main+0x1de6>
    4dc8:	c9 01       	movw	r24, r18
    4dca:	01 96       	adiw	r24, 0x01	; 1
    4dcc:	48 17       	cp	r20, r24
    4dce:	59 07       	cpc	r21, r25
    4dd0:	51 f0       	breq	.+20     	; 0x4de6 <main+0x1de6>
    4dd2:	c9 01       	movw	r24, r18
    4dd4:	01 97       	sbiw	r24, 0x01	; 1
    4dd6:	48 17       	cp	r20, r24
    4dd8:	59 07       	cpc	r21, r25
    4dda:	29 f0       	breq	.+10     	; 0x4de6 <main+0x1de6>
    4ddc:	2e 5f       	subi	r18, 0xFE	; 254
    4dde:	3f 4f       	sbci	r19, 0xFF	; 255
    4de0:	42 17       	cp	r20, r18
    4de2:	53 07       	cpc	r21, r19
    4de4:	59 f5       	brne	.+86     	; 0x4e3c <main+0x1e3c>
    4de6:	80 91 cf 00 	lds	r24, 0x00CF
    4dea:	28 2f       	mov	r18, r24
    4dec:	30 e0       	ldi	r19, 0x00	; 0
    4dee:	40 91 aa 00 	lds	r20, 0x00AA
    4df2:	50 91 ab 00 	lds	r21, 0x00AB
    4df6:	24 17       	cp	r18, r20
    4df8:	35 07       	cpc	r19, r21
    4dfa:	51 f0       	breq	.+20     	; 0x4e10 <main+0x1e10>
    4dfc:	c9 01       	movw	r24, r18
    4dfe:	01 96       	adiw	r24, 0x01	; 1
    4e00:	84 17       	cp	r24, r20
    4e02:	95 07       	cpc	r25, r21
    4e04:	29 f0       	breq	.+10     	; 0x4e10 <main+0x1e10>
    4e06:	2e 5f       	subi	r18, 0xFE	; 254
    4e08:	3f 4f       	sbci	r19, 0xFF	; 255
    4e0a:	24 17       	cp	r18, r20
    4e0c:	35 07       	cpc	r19, r21
    4e0e:	b1 f4       	brne	.+44     	; 0x4e3c <main+0x1e3c>
    4e10:	80 91 7d 00 	lds	r24, 0x007D
    4e14:	90 91 7e 00 	lds	r25, 0x007E
    4e18:	89 2b       	or	r24, r25
    4e1a:	81 f4       	brne	.+32     	; 0x4e3c <main+0x1e3c>
     
{clear_ball();
    4e1c:	0e 94 ea 10 	call	0x21d4	; 0x21d4 <clear_ball>
create_ball_initially(xfood,yfood);
    4e20:	60 91 aa 00 	lds	r22, 0x00AA
    4e24:	70 91 ab 00 	lds	r23, 0x00AB
    4e28:	80 91 90 00 	lds	r24, 0x0090
    4e2c:	90 91 91 00 	lds	r25, 0x0091
    4e30:	0e 94 c2 10 	call	0x2184	; 0x2184 <create_ball_initially>
food=1;
    4e34:	f0 92 7e 00 	sts	0x007E, r15
    4e38:	e0 92 7d 00 	sts	0x007D, r14
}

// if position of the ball is adjacent to that of food2
 if((xpos==xfood2||xpos+1==xfood2||xpos+2==xfood2||xpos==xfood2+1||xpos+1==xfood2+1||xpos+2==xfood2+1||xpos==xfood2+2||xpos+1==xfood2+2||xpos+2==xfood2+2 )&& (ypos==yfood2||ypos+1==yfood2||ypos+2==yfood2) && food2==0)//or they are in surroundings)
    4e3c:	80 91 8b 00 	lds	r24, 0x008B
    4e40:	48 2f       	mov	r20, r24
    4e42:	50 e0       	ldi	r21, 0x00	; 0
    4e44:	20 91 a8 00 	lds	r18, 0x00A8
    4e48:	30 91 a9 00 	lds	r19, 0x00A9
    4e4c:	42 17       	cp	r20, r18
    4e4e:	53 07       	cpc	r21, r19
    4e50:	c9 f0       	breq	.+50     	; 0x4e84 <main+0x1e84>
    4e52:	ca 01       	movw	r24, r20
    4e54:	01 96       	adiw	r24, 0x01	; 1
    4e56:	82 17       	cp	r24, r18
    4e58:	93 07       	cpc	r25, r19
    4e5a:	a1 f0       	breq	.+40     	; 0x4e84 <main+0x1e84>
    4e5c:	ca 01       	movw	r24, r20
    4e5e:	02 96       	adiw	r24, 0x02	; 2
    4e60:	82 17       	cp	r24, r18
    4e62:	93 07       	cpc	r25, r19
    4e64:	79 f0       	breq	.+30     	; 0x4e84 <main+0x1e84>
    4e66:	c9 01       	movw	r24, r18
    4e68:	01 96       	adiw	r24, 0x01	; 1
    4e6a:	48 17       	cp	r20, r24
    4e6c:	59 07       	cpc	r21, r25
    4e6e:	51 f0       	breq	.+20     	; 0x4e84 <main+0x1e84>
    4e70:	c9 01       	movw	r24, r18
    4e72:	01 97       	sbiw	r24, 0x01	; 1
    4e74:	48 17       	cp	r20, r24
    4e76:	59 07       	cpc	r21, r25
    4e78:	29 f0       	breq	.+10     	; 0x4e84 <main+0x1e84>
    4e7a:	2e 5f       	subi	r18, 0xFE	; 254
    4e7c:	3f 4f       	sbci	r19, 0xFF	; 255
    4e7e:	42 17       	cp	r20, r18
    4e80:	53 07       	cpc	r21, r19
    4e82:	59 f5       	brne	.+86     	; 0x4eda <main+0x1eda>
    4e84:	80 91 cf 00 	lds	r24, 0x00CF
    4e88:	28 2f       	mov	r18, r24
    4e8a:	30 e0       	ldi	r19, 0x00	; 0
    4e8c:	40 91 98 00 	lds	r20, 0x0098
    4e90:	50 91 99 00 	lds	r21, 0x0099
    4e94:	24 17       	cp	r18, r20
    4e96:	35 07       	cpc	r19, r21
    4e98:	51 f0       	breq	.+20     	; 0x4eae <main+0x1eae>
    4e9a:	c9 01       	movw	r24, r18
    4e9c:	01 96       	adiw	r24, 0x01	; 1
    4e9e:	84 17       	cp	r24, r20
    4ea0:	95 07       	cpc	r25, r21
    4ea2:	29 f0       	breq	.+10     	; 0x4eae <main+0x1eae>
    4ea4:	2e 5f       	subi	r18, 0xFE	; 254
    4ea6:	3f 4f       	sbci	r19, 0xFF	; 255
    4ea8:	24 17       	cp	r18, r20
    4eaa:	35 07       	cpc	r19, r21
    4eac:	b1 f4       	brne	.+44     	; 0x4eda <main+0x1eda>
    4eae:	80 91 9f 00 	lds	r24, 0x009F
    4eb2:	90 91 a0 00 	lds	r25, 0x00A0
    4eb6:	89 2b       	or	r24, r25
    4eb8:	81 f4       	brne	.+32     	; 0x4eda <main+0x1eda>
{clear_ball();
    4eba:	0e 94 ea 10 	call	0x21d4	; 0x21d4 <clear_ball>
create_ball_initially(xfood2,yfood2);
    4ebe:	60 91 98 00 	lds	r22, 0x0098
    4ec2:	70 91 99 00 	lds	r23, 0x0099
    4ec6:	80 91 a8 00 	lds	r24, 0x00A8
    4eca:	90 91 a9 00 	lds	r25, 0x00A9
    4ece:	0e 94 c2 10 	call	0x2184	; 0x2184 <create_ball_initially>
food2=1;
    4ed2:	f0 92 a0 00 	sts	0x00A0, r15
    4ed6:	e0 92 9f 00 	sts	0x009F, r14
}
if(food==1 && food2==1)
    4eda:	80 91 7d 00 	lds	r24, 0x007D
    4ede:	90 91 7e 00 	lds	r25, 0x007E
    4ee2:	01 97       	sbiw	r24, 0x01	; 1
    4ee4:	09 f0       	breq	.+2      	; 0x4ee8 <main+0x1ee8>
    4ee6:	51 c1       	rjmp	.+674    	; 0x518a <main+0x218a>
    4ee8:	80 91 9f 00 	lds	r24, 0x009F
    4eec:	90 91 a0 00 	lds	r25, 0x00A0
    4ef0:	01 97       	sbiw	r24, 0x01	; 1
    4ef2:	09 f0       	breq	.+2      	; 0x4ef6 <main+0x1ef6>
    4ef4:	4a c1       	rjmp	.+660    	; 0x518a <main+0x218a>
{

// creating the path
CrHBlock(50,48,20);
    4ef6:	82 e3       	ldi	r24, 0x32	; 50
    4ef8:	90 e0       	ldi	r25, 0x00	; 0
    4efa:	60 e3       	ldi	r22, 0x30	; 48
    4efc:	70 e0       	ldi	r23, 0x00	; 0
    4efe:	44 e1       	ldi	r20, 0x14	; 20
    4f00:	50 e0       	ldi	r21, 0x00	; 0
    4f02:	0e 94 52 14 	call	0x28a4	; 0x28a4 <CrHBlock>
CrHBlock(50,53,20);
    4f06:	82 e3       	ldi	r24, 0x32	; 50
    4f08:	90 e0       	ldi	r25, 0x00	; 0
    4f0a:	65 e3       	ldi	r22, 0x35	; 53
    4f0c:	70 e0       	ldi	r23, 0x00	; 0
    4f0e:	44 e1       	ldi	r20, 0x14	; 20
    4f10:	50 e0       	ldi	r21, 0x00	; 0
    4f12:	0e 94 52 14 	call	0x28a4	; 0x28a4 <CrHBlock>
ErVBlock(49,49,4);
    4f16:	81 e3       	ldi	r24, 0x31	; 49
    4f18:	90 e0       	ldi	r25, 0x00	; 0
    4f1a:	61 e3       	ldi	r22, 0x31	; 49
    4f1c:	70 e0       	ldi	r23, 0x00	; 0
    4f1e:	44 e0       	ldi	r20, 0x04	; 4
    4f20:	50 e0       	ldi	r21, 0x00	; 0
    4f22:	0e 94 6f 14 	call	0x28de	; 0x28de <ErVBlock>
ErVBlock(70,49,4);
    4f26:	86 e4       	ldi	r24, 0x46	; 70
    4f28:	90 e0       	ldi	r25, 0x00	; 0
    4f2a:	61 e3       	ldi	r22, 0x31	; 49
    4f2c:	70 e0       	ldi	r23, 0x00	; 0
    4f2e:	44 e0       	ldi	r20, 0x04	; 4
    4f30:	50 e0       	ldi	r21, 0x00	; 0
    4f32:	0e 94 6f 14 	call	0x28de	; 0x28de <ErVBlock>
 // creating new food positions 
 xfood=xpos;// temporarily storing the positions
    4f36:	80 91 8b 00 	lds	r24, 0x008B
    4f3a:	80 93 90 00 	sts	0x0090, r24
    4f3e:	10 92 91 00 	sts	0x0091, r1
 yfood=ypos;
    4f42:	80 91 cf 00 	lds	r24, 0x00CF
    4f46:	80 93 aa 00 	sts	0x00AA, r24
    4f4a:	10 92 ab 00 	sts	0x00AB, r1
 create_ball_initially(72,40);
    4f4e:	88 e4       	ldi	r24, 0x48	; 72
    4f50:	90 e0       	ldi	r25, 0x00	; 0
    4f52:	68 e2       	ldi	r22, 0x28	; 40
    4f54:	70 e0       	ldi	r23, 0x00	; 0
    4f56:	0e 94 c2 10 	call	0x2184	; 0x2184 <create_ball_initially>
 create_ball_initially(92,44);
    4f5a:	8c e5       	ldi	r24, 0x5C	; 92
    4f5c:	90 e0       	ldi	r25, 0x00	; 0
    4f5e:	6c e2       	ldi	r22, 0x2C	; 44
    4f60:	70 e0       	ldi	r23, 0x00	; 0
    4f62:	0e 94 c2 10 	call	0x2184	; 0x2184 <create_ball_initially>
 xpos=xfood;// storing the positions back 
    4f66:	80 91 90 00 	lds	r24, 0x0090
    4f6a:	80 93 8b 00 	sts	0x008B, r24
 ypos=yfood;
    4f6e:	80 91 aa 00 	lds	r24, 0x00AA
    4f72:	80 93 cf 00 	sts	0x00CF, r24
 xfood=72;
    4f76:	88 e4       	ldi	r24, 0x48	; 72
    4f78:	90 e0       	ldi	r25, 0x00	; 0
    4f7a:	90 93 91 00 	sts	0x0091, r25
    4f7e:	80 93 90 00 	sts	0x0090, r24
 yfood=40;
    4f82:	88 e2       	ldi	r24, 0x28	; 40
    4f84:	90 e0       	ldi	r25, 0x00	; 0
    4f86:	90 93 ab 00 	sts	0x00AB, r25
    4f8a:	80 93 aa 00 	sts	0x00AA, r24
 xfood2=92;
    4f8e:	8c e5       	ldi	r24, 0x5C	; 92
    4f90:	90 e0       	ldi	r25, 0x00	; 0
    4f92:	90 93 a9 00 	sts	0x00A9, r25
    4f96:	80 93 a8 00 	sts	0x00A8, r24
 yfood2=44;
    4f9a:	8c e2       	ldi	r24, 0x2C	; 44
    4f9c:	90 e0       	ldi	r25, 0x00	; 0
    4f9e:	90 93 99 00 	sts	0x0099, r25
    4fa2:	80 93 98 00 	sts	0x0098, r24
 food=0;
    4fa6:	10 92 7e 00 	sts	0x007E, r1
    4faa:	10 92 7d 00 	sts	0x007D, r1
 food2=0;
    4fae:	10 92 a0 00 	sts	0x00A0, r1
    4fb2:	10 92 9f 00 	sts	0x009F, r1
 event=3;
    4fb6:	70 92 bf 00 	sts	0x00BF, r7
    4fba:	60 92 be 00 	sts	0x00BE, r6
 Fscore=Fscore+700;
    4fbe:	80 91 6f 00 	lds	r24, 0x006F
    4fc2:	90 91 70 00 	lds	r25, 0x0070
    4fc6:	84 54       	subi	r24, 0x44	; 68
    4fc8:	9d 4f       	sbci	r25, 0xFD	; 253
    4fca:	90 93 70 00 	sts	0x0070, r25
    4fce:	80 93 6f 00 	sts	0x006F, r24
    4fd2:	db c0       	rjmp	.+438    	; 0x518a <main+0x218a>

}

}// end of event == 2

else if(event==3)
    4fd4:	03 97       	sbiw	r24, 0x03	; 3
    4fd6:	09 f0       	breq	.+2      	; 0x4fda <main+0x1fda>
    4fd8:	d8 c0       	rjmp	.+432    	; 0x518a <main+0x218a>
{
// if position of the ball is adjacent to that of food1
if((xpos==xfood||xpos+1==xfood||xpos+2==xfood||xpos==xfood+1||xpos+1==xfood+1||xpos+2==xfood+1||xpos==xfood+2||xpos+1==xfood+2||xpos+2==xfood+2 )&& (ypos==yfood||ypos+1==yfood||ypos+2==yfood) && food==0)//or they are in surroundings)
    4fda:	80 91 8b 00 	lds	r24, 0x008B
    4fde:	48 2f       	mov	r20, r24
    4fe0:	50 e0       	ldi	r21, 0x00	; 0
    4fe2:	20 91 90 00 	lds	r18, 0x0090
    4fe6:	30 91 91 00 	lds	r19, 0x0091
    4fea:	42 17       	cp	r20, r18
    4fec:	53 07       	cpc	r21, r19
    4fee:	c9 f0       	breq	.+50     	; 0x5022 <main+0x2022>
    4ff0:	ca 01       	movw	r24, r20
    4ff2:	01 96       	adiw	r24, 0x01	; 1
    4ff4:	82 17       	cp	r24, r18
    4ff6:	93 07       	cpc	r25, r19
    4ff8:	a1 f0       	breq	.+40     	; 0x5022 <main+0x2022>
    4ffa:	ca 01       	movw	r24, r20
    4ffc:	02 96       	adiw	r24, 0x02	; 2
    4ffe:	82 17       	cp	r24, r18
    5000:	93 07       	cpc	r25, r19
    5002:	79 f0       	breq	.+30     	; 0x5022 <main+0x2022>
    5004:	c9 01       	movw	r24, r18
    5006:	01 96       	adiw	r24, 0x01	; 1
    5008:	48 17       	cp	r20, r24
    500a:	59 07       	cpc	r21, r25
    500c:	51 f0       	breq	.+20     	; 0x5022 <main+0x2022>
    500e:	c9 01       	movw	r24, r18
    5010:	01 97       	sbiw	r24, 0x01	; 1
    5012:	48 17       	cp	r20, r24
    5014:	59 07       	cpc	r21, r25
    5016:	29 f0       	breq	.+10     	; 0x5022 <main+0x2022>
    5018:	2e 5f       	subi	r18, 0xFE	; 254
    501a:	3f 4f       	sbci	r19, 0xFF	; 255
    501c:	42 17       	cp	r20, r18
    501e:	53 07       	cpc	r21, r19
    5020:	59 f5       	brne	.+86     	; 0x5078 <main+0x2078>
    5022:	80 91 cf 00 	lds	r24, 0x00CF
    5026:	28 2f       	mov	r18, r24
    5028:	30 e0       	ldi	r19, 0x00	; 0
    502a:	40 91 aa 00 	lds	r20, 0x00AA
    502e:	50 91 ab 00 	lds	r21, 0x00AB
    5032:	24 17       	cp	r18, r20
    5034:	35 07       	cpc	r19, r21
    5036:	51 f0       	breq	.+20     	; 0x504c <main+0x204c>
    5038:	c9 01       	movw	r24, r18
    503a:	01 96       	adiw	r24, 0x01	; 1
    503c:	84 17       	cp	r24, r20
    503e:	95 07       	cpc	r25, r21
    5040:	29 f0       	breq	.+10     	; 0x504c <main+0x204c>
    5042:	2e 5f       	subi	r18, 0xFE	; 254
    5044:	3f 4f       	sbci	r19, 0xFF	; 255
    5046:	24 17       	cp	r18, r20
    5048:	35 07       	cpc	r19, r21
    504a:	b1 f4       	brne	.+44     	; 0x5078 <main+0x2078>
    504c:	80 91 7d 00 	lds	r24, 0x007D
    5050:	90 91 7e 00 	lds	r25, 0x007E
    5054:	89 2b       	or	r24, r25
    5056:	81 f4       	brne	.+32     	; 0x5078 <main+0x2078>
     
{clear_ball();
    5058:	0e 94 ea 10 	call	0x21d4	; 0x21d4 <clear_ball>
create_ball_initially(xfood,yfood);
    505c:	60 91 aa 00 	lds	r22, 0x00AA
    5060:	70 91 ab 00 	lds	r23, 0x00AB
    5064:	80 91 90 00 	lds	r24, 0x0090
    5068:	90 91 91 00 	lds	r25, 0x0091
    506c:	0e 94 c2 10 	call	0x2184	; 0x2184 <create_ball_initially>
food=1;
    5070:	f0 92 7e 00 	sts	0x007E, r15
    5074:	e0 92 7d 00 	sts	0x007D, r14
}

// if position of the ball is adjacent to that of food2
 if((xpos==xfood2||xpos+1==xfood2||xpos+2==xfood2||xpos==xfood2+1||xpos+1==xfood2+1||xpos+2==xfood2+1||xpos==xfood2+2||xpos+1==xfood2+2||xpos+2==xfood2+2 )&& (ypos==yfood2||ypos+1==yfood2||ypos+2==yfood2)  && food2==0)//or they are in surroundings)
    5078:	80 91 8b 00 	lds	r24, 0x008B
    507c:	48 2f       	mov	r20, r24
    507e:	50 e0       	ldi	r21, 0x00	; 0
    5080:	20 91 a8 00 	lds	r18, 0x00A8
    5084:	30 91 a9 00 	lds	r19, 0x00A9
    5088:	42 17       	cp	r20, r18
    508a:	53 07       	cpc	r21, r19
    508c:	c9 f0       	breq	.+50     	; 0x50c0 <main+0x20c0>
    508e:	ca 01       	movw	r24, r20
    5090:	01 96       	adiw	r24, 0x01	; 1
    5092:	82 17       	cp	r24, r18
    5094:	93 07       	cpc	r25, r19
    5096:	a1 f0       	breq	.+40     	; 0x50c0 <main+0x20c0>
    5098:	ca 01       	movw	r24, r20
    509a:	02 96       	adiw	r24, 0x02	; 2
    509c:	82 17       	cp	r24, r18
    509e:	93 07       	cpc	r25, r19
    50a0:	79 f0       	breq	.+30     	; 0x50c0 <main+0x20c0>
    50a2:	c9 01       	movw	r24, r18
    50a4:	01 96       	adiw	r24, 0x01	; 1
    50a6:	48 17       	cp	r20, r24
    50a8:	59 07       	cpc	r21, r25
    50aa:	51 f0       	breq	.+20     	; 0x50c0 <main+0x20c0>
    50ac:	c9 01       	movw	r24, r18
    50ae:	01 97       	sbiw	r24, 0x01	; 1
    50b0:	48 17       	cp	r20, r24
    50b2:	59 07       	cpc	r21, r25
    50b4:	29 f0       	breq	.+10     	; 0x50c0 <main+0x20c0>
    50b6:	2e 5f       	subi	r18, 0xFE	; 254
    50b8:	3f 4f       	sbci	r19, 0xFF	; 255
    50ba:	42 17       	cp	r20, r18
    50bc:	53 07       	cpc	r21, r19
    50be:	59 f5       	brne	.+86     	; 0x5116 <main+0x2116>
    50c0:	80 91 cf 00 	lds	r24, 0x00CF
    50c4:	28 2f       	mov	r18, r24
    50c6:	30 e0       	ldi	r19, 0x00	; 0
    50c8:	40 91 98 00 	lds	r20, 0x0098
    50cc:	50 91 99 00 	lds	r21, 0x0099
    50d0:	24 17       	cp	r18, r20
    50d2:	35 07       	cpc	r19, r21
    50d4:	51 f0       	breq	.+20     	; 0x50ea <main+0x20ea>
    50d6:	c9 01       	movw	r24, r18
    50d8:	01 96       	adiw	r24, 0x01	; 1
    50da:	84 17       	cp	r24, r20
    50dc:	95 07       	cpc	r25, r21
    50de:	29 f0       	breq	.+10     	; 0x50ea <main+0x20ea>
    50e0:	2e 5f       	subi	r18, 0xFE	; 254
    50e2:	3f 4f       	sbci	r19, 0xFF	; 255
    50e4:	24 17       	cp	r18, r20
    50e6:	35 07       	cpc	r19, r21
    50e8:	b1 f4       	brne	.+44     	; 0x5116 <main+0x2116>
    50ea:	80 91 9f 00 	lds	r24, 0x009F
    50ee:	90 91 a0 00 	lds	r25, 0x00A0
    50f2:	89 2b       	or	r24, r25
    50f4:	81 f4       	brne	.+32     	; 0x5116 <main+0x2116>
{clear_ball();
    50f6:	0e 94 ea 10 	call	0x21d4	; 0x21d4 <clear_ball>
create_ball_initially(xfood2,yfood2);
    50fa:	60 91 98 00 	lds	r22, 0x0098
    50fe:	70 91 99 00 	lds	r23, 0x0099
    5102:	80 91 a8 00 	lds	r24, 0x00A8
    5106:	90 91 a9 00 	lds	r25, 0x00A9
    510a:	0e 94 c2 10 	call	0x2184	; 0x2184 <create_ball_initially>
food2=1;
    510e:	f0 92 a0 00 	sts	0x00A0, r15
    5112:	e0 92 9f 00 	sts	0x009F, r14
}
if(food==1&&food2==1)
    5116:	80 91 7d 00 	lds	r24, 0x007D
    511a:	90 91 7e 00 	lds	r25, 0x007E
    511e:	01 97       	sbiw	r24, 0x01	; 1
    5120:	a1 f5       	brne	.+104    	; 0x518a <main+0x218a>
    5122:	80 91 9f 00 	lds	r24, 0x009F
    5126:	90 91 a0 00 	lds	r25, 0x00A0
    512a:	01 97       	sbiw	r24, 0x01	; 1
    512c:	71 f5       	brne	.+92     	; 0x518a <main+0x218a>
{
Fscore=Fscore+900;
    512e:	80 91 6f 00 	lds	r24, 0x006F
    5132:	90 91 70 00 	lds	r25, 0x0070
    5136:	8c 57       	subi	r24, 0x7C	; 124
    5138:	9c 4f       	sbci	r25, 0xFC	; 252
    513a:	90 93 70 00 	sts	0x0070, r25
    513e:	80 93 6f 00 	sts	0x006F, r24
ErVBlock(109,51,6);
    5142:	8d e6       	ldi	r24, 0x6D	; 109
    5144:	90 e0       	ldi	r25, 0x00	; 0
    5146:	63 e3       	ldi	r22, 0x33	; 51
    5148:	70 e0       	ldi	r23, 0x00	; 0
    514a:	46 e0       	ldi	r20, 0x06	; 6
    514c:	50 e0       	ldi	r21, 0x00	; 0
    514e:	0e 94 6f 14 	call	0x28de	; 0x28de <ErVBlock>
ErVBlock(113,51,6);
    5152:	81 e7       	ldi	r24, 0x71	; 113
    5154:	90 e0       	ldi	r25, 0x00	; 0
    5156:	63 e3       	ldi	r22, 0x33	; 51
    5158:	70 e0       	ldi	r23, 0x00	; 0
    515a:	46 e0       	ldi	r20, 0x06	; 6
    515c:	50 e0       	ldi	r21, 0x00	; 0
    515e:	0e 94 6f 14 	call	0x28de	; 0x28de <ErVBlock>
CrHBlock(109,51,5);
    5162:	8d e6       	ldi	r24, 0x6D	; 109
    5164:	90 e0       	ldi	r25, 0x00	; 0
    5166:	63 e3       	ldi	r22, 0x33	; 51
    5168:	70 e0       	ldi	r23, 0x00	; 0
    516a:	45 e0       	ldi	r20, 0x05	; 5
    516c:	50 e0       	ldi	r21, 0x00	; 0
    516e:	0e 94 52 14 	call	0x28a4	; 0x28a4 <CrHBlock>
CrHBlock(109,56,5);
    5172:	8d e6       	ldi	r24, 0x6D	; 109
    5174:	90 e0       	ldi	r25, 0x00	; 0
    5176:	68 e3       	ldi	r22, 0x38	; 56
    5178:	70 e0       	ldi	r23, 0x00	; 0
    517a:	45 e0       	ldi	r20, 0x05	; 5
    517c:	50 e0       	ldi	r21, 0x00	; 0
    517e:	0e 94 52 14 	call	0x28a4	; 0x28a4 <CrHBlock>
event=4;
    5182:	90 92 bf 00 	sts	0x00BF, r9
    5186:	80 92 be 00 	sts	0x00BE, r8
// end of event ==3*/




if(xpos>=109&& event==4)
    518a:	80 91 8b 00 	lds	r24, 0x008B
    518e:	8d 36       	cpi	r24, 0x6D	; 109
    5190:	08 f4       	brcc	.+2      	; 0x5194 <main+0x2194>
    5192:	05 c1       	rjmp	.+522    	; 0x539e <main+0x239e>
    5194:	80 91 be 00 	lds	r24, 0x00BE
    5198:	90 91 bf 00 	lds	r25, 0x00BF
    519c:	04 97       	sbiw	r24, 0x04	; 4
    519e:	09 f0       	breq	.+2      	; 0x51a2 <main+0x21a2>
    51a0:	fe c0       	rjmp	.+508    	; 0x539e <main+0x239e>
{
time3=time;
    51a2:	80 91 c0 00 	lds	r24, 0x00C0
    51a6:	90 91 c1 00 	lds	r25, 0x00C1
    51aa:	90 93 78 00 	sts	0x0078, r25
    51ae:	80 93 77 00 	sts	0x0077, r24
	Fscore=Fscore+71*time;
    51b2:	82 9d       	mul	r24, r2
    51b4:	90 01       	movw	r18, r0
    51b6:	83 9d       	mul	r24, r3
    51b8:	30 0d       	add	r19, r0
    51ba:	92 9d       	mul	r25, r2
    51bc:	30 0d       	add	r19, r0
    51be:	11 24       	eor	r1, r1
    51c0:	80 91 6f 00 	lds	r24, 0x006F
    51c4:	90 91 70 00 	lds	r25, 0x0070
    51c8:	82 0f       	add	r24, r18
    51ca:	93 1f       	adc	r25, r19
    51cc:	90 93 70 00 	sts	0x0070, r25
    51d0:	80 93 6f 00 	sts	0x006F, r24
	ks0108ClearScreen();// clear the screen
    51d4:	80 e0       	ldi	r24, 0x00	; 0
    51d6:	60 e0       	ldi	r22, 0x00	; 0
    51d8:	4f e7       	ldi	r20, 0x7F	; 127
    51da:	2f e3       	ldi	r18, 0x3F	; 63
    51dc:	00 e0       	ldi	r16, 0x00	; 0
    51de:	0e 94 5d 0d 	call	0x1aba	; 0x1aba <ks0108FillRect>
	//print the message
		ks0108GotoXY(10,10);
    51e2:	8a e0       	ldi	r24, 0x0A	; 10
    51e4:	6a e0       	ldi	r22, 0x0A	; 10
    51e6:	0e 94 44 0a 	call	0x1488	; 0x1488 <ks0108GotoXY>
	ks0108Puts_P(PSTR("Level Completed"));
    51ea:	8d e4       	ldi	r24, 0x4D	; 77
    51ec:	92 e1       	ldi	r25, 0x12	; 18
    51ee:	0e 94 38 0c 	call	0x1870	; 0x1870 <ks0108Puts_P>

	// print the score
	ks0108GotoXY(15,30);
    51f2:	8f e0       	ldi	r24, 0x0F	; 15
    51f4:	6e e1       	ldi	r22, 0x1E	; 30
    51f6:	0e 94 44 0a 	call	0x1488	; 0x1488 <ks0108GotoXY>
	
	ks0108Puts_P(PSTR("Score -"));
    51fa:	85 e4       	ldi	r24, 0x45	; 69
    51fc:	92 e1       	ldi	r25, 0x12	; 18
    51fe:	0e 94 38 0c 	call	0x1870	; 0x1870 <ks0108Puts_P>
	ks0108GotoXY(70,30);
    5202:	86 e4       	ldi	r24, 0x46	; 70
    5204:	6e e1       	ldi	r22, 0x1E	; 30
    5206:	0e 94 44 0a 	call	0x1488	; 0x1488 <ks0108GotoXY>
	itoa(Fscore,a,10);
    520a:	80 91 6f 00 	lds	r24, 0x006F
    520e:	90 91 70 00 	lds	r25, 0x0070
    5212:	60 ed       	ldi	r22, 0xD0	; 208
    5214:	70 e0       	ldi	r23, 0x00	; 0
    5216:	4a e0       	ldi	r20, 0x0A	; 10
    5218:	50 e0       	ldi	r21, 0x00	; 0
    521a:	0e 94 ce 2b 	call	0x579c	; 0x579c <itoa>
	ks0108Puts(a);
    521e:	80 ed       	ldi	r24, 0xD0	; 208
    5220:	90 e0       	ldi	r25, 0x00	; 0
    5222:	0e 94 60 0c 	call	0x18c0	; 0x18c0 <ks0108Puts>
    5226:	88 e8       	ldi	r24, 0x88	; 136
    5228:	93 e1       	ldi	r25, 0x13	; 19
    522a:	f6 01       	movw	r30, r12
    522c:	31 97       	sbiw	r30, 0x01	; 1
    522e:	f1 f7       	brne	.-4      	; 0x522c <main+0x222c>
		{
			// wait 1/10 ms
			_delay_loop_2(((F_CPU) / 4e3) / 10);
			__ticks --;
    5230:	01 97       	sbiw	r24, 0x01	; 1
		__ticks = 1;
	else if (__tmp > 65535)
	{
		//	__ticks = requested delay in 1/10 ms
		__ticks = (uint16_t) (__ms * 10.0);
		while(__ticks)
    5232:	d9 f7       	brne	.-10     	; 0x522a <main+0x222a>
	_delay_ms(500);
	ks0108ClearScreen();
    5234:	80 e0       	ldi	r24, 0x00	; 0
    5236:	60 e0       	ldi	r22, 0x00	; 0
    5238:	4f e7       	ldi	r20, 0x7F	; 127
    523a:	2f e3       	ldi	r18, 0x3F	; 63
    523c:	00 e0       	ldi	r16, 0x00	; 0
    523e:	0e 94 5d 0d 	call	0x1aba	; 0x1aba <ks0108FillRect>

	if(Fscore>=high_score1)
    5242:	40 91 6f 00 	lds	r20, 0x006F
    5246:	50 91 70 00 	lds	r21, 0x0070
    524a:	20 91 63 00 	lds	r18, 0x0063
    524e:	30 91 64 00 	lds	r19, 0x0064
    5252:	42 17       	cp	r20, r18
    5254:	53 07       	cpc	r21, r19
    5256:	64 f1       	brlt	.+88     	; 0x52b0 <main+0x22b0>
	{
	high_score3=high_score2;
    5258:	80 91 65 00 	lds	r24, 0x0065
    525c:	90 91 66 00 	lds	r25, 0x0066
    5260:	90 93 6e 00 	sts	0x006E, r25
    5264:	80 93 6d 00 	sts	0x006D, r24
	high_score2=high_score1;
    5268:	30 93 66 00 	sts	0x0066, r19
    526c:	20 93 65 00 	sts	0x0065, r18
	high_score1=Fscore;
    5270:	50 93 64 00 	sts	0x0064, r21
    5274:	40 93 63 00 	sts	0x0063, r20
	ks0108ClearScreen();
    5278:	80 e0       	ldi	r24, 0x00	; 0
    527a:	60 e0       	ldi	r22, 0x00	; 0
    527c:	4f e7       	ldi	r20, 0x7F	; 127
    527e:	2f e3       	ldi	r18, 0x3F	; 63
    5280:	0e 94 5d 0d 	call	0x1aba	; 0x1aba <ks0108FillRect>
	ks0108GotoXY(15,25);
    5284:	8f e0       	ldi	r24, 0x0F	; 15
    5286:	69 e1       	ldi	r22, 0x19	; 25
    5288:	0e 94 44 0a 	call	0x1488	; 0x1488 <ks0108GotoXY>
	ks0108Puts_P(PSTR("!!!!HIGH SCORE!!!!"));
    528c:	82 e3       	ldi	r24, 0x32	; 50
    528e:	92 e1       	ldi	r25, 0x12	; 18
    5290:	0e 94 38 0c 	call	0x1870	; 0x1870 <ks0108Puts_P>
    5294:	88 e8       	ldi	r24, 0x88	; 136
    5296:	93 e1       	ldi	r25, 0x13	; 19
    5298:	f6 01       	movw	r30, r12
    529a:	31 97       	sbiw	r30, 0x01	; 1
    529c:	f1 f7       	brne	.-4      	; 0x529a <main+0x229a>
		{
			// wait 1/10 ms
			_delay_loop_2(((F_CPU) / 4e3) / 10);
			__ticks --;
    529e:	01 97       	sbiw	r24, 0x01	; 1
		__ticks = 1;
	else if (__tmp > 65535)
	{
		//	__ticks = requested delay in 1/10 ms
		__ticks = (uint16_t) (__ms * 10.0);
		while(__ticks)
    52a0:	d9 f7       	brne	.-10     	; 0x5298 <main+0x2298>
	_delay_ms(500);
	ks0108ClearScreen();
    52a2:	80 e0       	ldi	r24, 0x00	; 0
    52a4:	60 e0       	ldi	r22, 0x00	; 0
    52a6:	4f e7       	ldi	r20, 0x7F	; 127
    52a8:	2f e3       	ldi	r18, 0x3F	; 63
    52aa:	00 e0       	ldi	r16, 0x00	; 0
    52ac:	0e 94 5d 0d 	call	0x1aba	; 0x1aba <ks0108FillRect>
	}
	 if(Fscore>=high_score2 && Fscore< high_score1)
    52b0:	20 91 6f 00 	lds	r18, 0x006F
    52b4:	30 91 70 00 	lds	r19, 0x0070
    52b8:	40 91 65 00 	lds	r20, 0x0065
    52bc:	50 91 66 00 	lds	r21, 0x0066
    52c0:	24 17       	cp	r18, r20
    52c2:	35 07       	cpc	r19, r21
    52c4:	64 f1       	brlt	.+88     	; 0x531e <main+0x231e>
    52c6:	80 91 63 00 	lds	r24, 0x0063
    52ca:	90 91 64 00 	lds	r25, 0x0064
    52ce:	28 17       	cp	r18, r24
    52d0:	39 07       	cpc	r19, r25
    52d2:	2c f5       	brge	.+74     	; 0x531e <main+0x231e>
	{
	high_score3=high_score2;
    52d4:	50 93 6e 00 	sts	0x006E, r21
    52d8:	40 93 6d 00 	sts	0x006D, r20
	high_score2=Fscore;
    52dc:	30 93 66 00 	sts	0x0066, r19
    52e0:	20 93 65 00 	sts	0x0065, r18
	ks0108ClearScreen();
    52e4:	80 e0       	ldi	r24, 0x00	; 0
    52e6:	60 e0       	ldi	r22, 0x00	; 0
    52e8:	4f e7       	ldi	r20, 0x7F	; 127
    52ea:	2f e3       	ldi	r18, 0x3F	; 63
    52ec:	00 e0       	ldi	r16, 0x00	; 0
    52ee:	0e 94 5d 0d 	call	0x1aba	; 0x1aba <ks0108FillRect>
	ks0108GotoXY(15,25);
    52f2:	8f e0       	ldi	r24, 0x0F	; 15
    52f4:	69 e1       	ldi	r22, 0x19	; 25
    52f6:	0e 94 44 0a 	call	0x1488	; 0x1488 <ks0108GotoXY>
	ks0108Puts_P(PSTR("!!!!HIGH SCORE!!!!"));
    52fa:	8f e1       	ldi	r24, 0x1F	; 31
    52fc:	92 e1       	ldi	r25, 0x12	; 18
    52fe:	0e 94 38 0c 	call	0x1870	; 0x1870 <ks0108Puts_P>
    5302:	88 e8       	ldi	r24, 0x88	; 136
    5304:	93 e1       	ldi	r25, 0x13	; 19
    5306:	f6 01       	movw	r30, r12
    5308:	31 97       	sbiw	r30, 0x01	; 1
    530a:	f1 f7       	brne	.-4      	; 0x5308 <main+0x2308>
		{
			// wait 1/10 ms
			_delay_loop_2(((F_CPU) / 4e3) / 10);
			__ticks --;
    530c:	01 97       	sbiw	r24, 0x01	; 1
		__ticks = 1;
	else if (__tmp > 65535)
	{
		//	__ticks = requested delay in 1/10 ms
		__ticks = (uint16_t) (__ms * 10.0);
		while(__ticks)
    530e:	d9 f7       	brne	.-10     	; 0x5306 <main+0x2306>
	_delay_ms(500);
	ks0108ClearScreen();
    5310:	80 e0       	ldi	r24, 0x00	; 0
    5312:	60 e0       	ldi	r22, 0x00	; 0
    5314:	4f e7       	ldi	r20, 0x7F	; 127
    5316:	2f e3       	ldi	r18, 0x3F	; 63
    5318:	00 e0       	ldi	r16, 0x00	; 0
    531a:	0e 94 5d 0d 	call	0x1aba	; 0x1aba <ks0108FillRect>
	}
	if(Fscore>=high_score3 && Fscore<high_score2 && Fscore<high_score1)
    531e:	20 91 6f 00 	lds	r18, 0x006F
    5322:	30 91 70 00 	lds	r19, 0x0070
    5326:	80 91 6d 00 	lds	r24, 0x006D
    532a:	90 91 6e 00 	lds	r25, 0x006E
    532e:	28 17       	cp	r18, r24
    5330:	39 07       	cpc	r19, r25
    5332:	7c f1       	brlt	.+94     	; 0x5392 <main+0x2392>
    5334:	80 91 65 00 	lds	r24, 0x0065
    5338:	90 91 66 00 	lds	r25, 0x0066
    533c:	28 17       	cp	r18, r24
    533e:	39 07       	cpc	r19, r25
    5340:	44 f5       	brge	.+80     	; 0x5392 <main+0x2392>
    5342:	80 91 63 00 	lds	r24, 0x0063
    5346:	90 91 64 00 	lds	r25, 0x0064
    534a:	28 17       	cp	r18, r24
    534c:	39 07       	cpc	r19, r25
    534e:	0c f5       	brge	.+66     	; 0x5392 <main+0x2392>
	{
	high_score3=Fscore;
    5350:	30 93 6e 00 	sts	0x006E, r19
    5354:	20 93 6d 00 	sts	0x006D, r18
	ks0108ClearScreen();
    5358:	80 e0       	ldi	r24, 0x00	; 0
    535a:	60 e0       	ldi	r22, 0x00	; 0
    535c:	4f e7       	ldi	r20, 0x7F	; 127
    535e:	2f e3       	ldi	r18, 0x3F	; 63
    5360:	00 e0       	ldi	r16, 0x00	; 0
    5362:	0e 94 5d 0d 	call	0x1aba	; 0x1aba <ks0108FillRect>
	ks0108GotoXY(15,25);
    5366:	8f e0       	ldi	r24, 0x0F	; 15
    5368:	69 e1       	ldi	r22, 0x19	; 25
    536a:	0e 94 44 0a 	call	0x1488	; 0x1488 <ks0108GotoXY>
	ks0108Puts_P(PSTR("!!!!HIGH SCORE!!!!"));
    536e:	8c e0       	ldi	r24, 0x0C	; 12
    5370:	92 e1       	ldi	r25, 0x12	; 18
    5372:	0e 94 38 0c 	call	0x1870	; 0x1870 <ks0108Puts_P>
    5376:	88 e8       	ldi	r24, 0x88	; 136
    5378:	93 e1       	ldi	r25, 0x13	; 19
    537a:	f6 01       	movw	r30, r12
    537c:	31 97       	sbiw	r30, 0x01	; 1
    537e:	f1 f7       	brne	.-4      	; 0x537c <main+0x237c>
		{
			// wait 1/10 ms
			_delay_loop_2(((F_CPU) / 4e3) / 10);
			__ticks --;
    5380:	01 97       	sbiw	r24, 0x01	; 1
		__ticks = 1;
	else if (__tmp > 65535)
	{
		//	__ticks = requested delay in 1/10 ms
		__ticks = (uint16_t) (__ms * 10.0);
		while(__ticks)
    5382:	d9 f7       	brne	.-10     	; 0x537a <main+0x237a>
	_delay_ms(500);
	ks0108ClearScreen();
    5384:	80 e0       	ldi	r24, 0x00	; 0
    5386:	60 e0       	ldi	r22, 0x00	; 0
    5388:	4f e7       	ldi	r20, 0x7F	; 127
    538a:	2f e3       	ldi	r18, 0x3F	; 63
    538c:	00 e0       	ldi	r16, 0x00	; 0
    538e:	0e 94 5d 0d 	call	0x1aba	; 0x1aba <ks0108FillRect>
	}


	menu();
    5392:	0e 94 2d 17 	call	0x2e5a	; 0x2e5a <menu>
	
	
	level=0;
    5396:	10 92 7a 00 	sts	0x007A, r1
    539a:	10 92 79 00 	sts	0x0079, r1

}
if(test_time==20)
    539e:	80 91 9a 00 	lds	r24, 0x009A
    53a2:	90 91 9b 00 	lds	r25, 0x009B
    53a6:	44 97       	sbiw	r24, 0x14	; 20
    53a8:	09 f0       	breq	.+2      	; 0x53ac <main+0x23ac>
    53aa:	c4 c0       	rjmp	.+392    	; 0x5534 <main+0x2534>
	{
	time--;
    53ac:	20 91 c0 00 	lds	r18, 0x00C0
    53b0:	30 91 c1 00 	lds	r19, 0x00C1
    53b4:	21 50       	subi	r18, 0x01	; 1
    53b6:	30 40       	sbci	r19, 0x00	; 0
    53b8:	30 93 c1 00 	sts	0x00C1, r19
    53bc:	20 93 c0 00 	sts	0x00C0, r18
	test_time=0;
    53c0:	10 92 9b 00 	sts	0x009B, r1
    53c4:	10 92 9a 00 	sts	0x009A, r1

	d3=time%10;
    53c8:	c9 01       	movw	r24, r18
    53ca:	6a e0       	ldi	r22, 0x0A	; 10
    53cc:	70 e0       	ldi	r23, 0x00	; 0
    53ce:	0e 94 a7 2b 	call	0x574e	; 0x574e <__divmodhi4>
    53d2:	90 93 e1 00 	sts	0x00E1, r25
    53d6:	80 93 e0 00 	sts	0x00E0, r24
	d2=(time/10)%10;
    53da:	c9 01       	movw	r24, r18
    53dc:	6a e0       	ldi	r22, 0x0A	; 10
    53de:	70 e0       	ldi	r23, 0x00	; 0
    53e0:	0e 94 a7 2b 	call	0x574e	; 0x574e <__divmodhi4>
    53e4:	cb 01       	movw	r24, r22
    53e6:	6a e0       	ldi	r22, 0x0A	; 10
    53e8:	70 e0       	ldi	r23, 0x00	; 0
    53ea:	0e 94 a7 2b 	call	0x574e	; 0x574e <__divmodhi4>
    53ee:	90 93 b7 00 	sts	0x00B7, r25
    53f2:	80 93 b6 00 	sts	0x00B6, r24
	d1=(time/100);
    53f6:	c9 01       	movw	r24, r18
    53f8:	64 e6       	ldi	r22, 0x64	; 100
    53fa:	70 e0       	ldi	r23, 0x00	; 0
    53fc:	0e 94 a7 2b 	call	0x574e	; 0x574e <__divmodhi4>
    5400:	70 93 95 00 	sts	0x0095, r23
    5404:	60 93 94 00 	sts	0x0094, r22

if(time%100==99)
    5408:	c9 01       	movw	r24, r18
    540a:	64 e6       	ldi	r22, 0x64	; 100
    540c:	70 e0       	ldi	r23, 0x00	; 0
    540e:	0e 94 a7 2b 	call	0x574e	; 0x574e <__divmodhi4>
    5412:	83 36       	cpi	r24, 0x63	; 99
    5414:	91 05       	cpc	r25, r1
    5416:	81 f5       	brne	.+96     	; 0x5478 <main+0x2478>
	{
	BlockClear(120,50);
    5418:	88 e7       	ldi	r24, 0x78	; 120
    541a:	90 e0       	ldi	r25, 0x00	; 0
    541c:	62 e3       	ldi	r22, 0x32	; 50
    541e:	70 e0       	ldi	r23, 0x00	; 0
    5420:	0e 94 f6 16 	call	0x2dec	; 0x2dec <BlockClear>
	BlockClear(120,45);
    5424:	88 e7       	ldi	r24, 0x78	; 120
    5426:	90 e0       	ldi	r25, 0x00	; 0
    5428:	6d e2       	ldi	r22, 0x2D	; 45
    542a:	70 e0       	ldi	r23, 0x00	; 0
    542c:	0e 94 f6 16 	call	0x2dec	; 0x2dec <BlockClear>
	BlockClear(120,40);
    5430:	88 e7       	ldi	r24, 0x78	; 120
    5432:	90 e0       	ldi	r25, 0x00	; 0
    5434:	68 e2       	ldi	r22, 0x28	; 40
    5436:	70 e0       	ldi	r23, 0x00	; 0
    5438:	0e 94 f6 16 	call	0x2dec	; 0x2dec <BlockClear>
	print_num(120,40,d3);
    543c:	40 91 e0 00 	lds	r20, 0x00E0
    5440:	50 91 e1 00 	lds	r21, 0x00E1
    5444:	88 e7       	ldi	r24, 0x78	; 120
    5446:	90 e0       	ldi	r25, 0x00	; 0
    5448:	68 e2       	ldi	r22, 0x28	; 40
    544a:	70 e0       	ldi	r23, 0x00	; 0
    544c:	0e 94 aa 14 	call	0x2954	; 0x2954 <print_num>
	print_num(120,45,d2);
    5450:	40 91 b6 00 	lds	r20, 0x00B6
    5454:	50 91 b7 00 	lds	r21, 0x00B7
    5458:	88 e7       	ldi	r24, 0x78	; 120
    545a:	90 e0       	ldi	r25, 0x00	; 0
    545c:	6d e2       	ldi	r22, 0x2D	; 45
    545e:	70 e0       	ldi	r23, 0x00	; 0
    5460:	0e 94 aa 14 	call	0x2954	; 0x2954 <print_num>
	print_num(120,50,d1);
    5464:	40 91 94 00 	lds	r20, 0x0094
    5468:	50 91 95 00 	lds	r21, 0x0095
    546c:	88 e7       	ldi	r24, 0x78	; 120
    546e:	90 e0       	ldi	r25, 0x00	; 0
    5470:	62 e3       	ldi	r22, 0x32	; 50
    5472:	70 e0       	ldi	r23, 0x00	; 0
    5474:	0e 94 aa 14 	call	0x2954	; 0x2954 <print_num>
	}

	if(time%10==9)
    5478:	80 91 c0 00 	lds	r24, 0x00C0
    547c:	90 91 c1 00 	lds	r25, 0x00C1
    5480:	6a e0       	ldi	r22, 0x0A	; 10
    5482:	70 e0       	ldi	r23, 0x00	; 0
    5484:	0e 94 a7 2b 	call	0x574e	; 0x574e <__divmodhi4>
    5488:	09 97       	sbiw	r24, 0x09	; 9
    548a:	51 f5       	brne	.+84     	; 0x54e0 <main+0x24e0>
	{
	BlockClear(120,40);
    548c:	88 e7       	ldi	r24, 0x78	; 120
    548e:	90 e0       	ldi	r25, 0x00	; 0
    5490:	68 e2       	ldi	r22, 0x28	; 40
    5492:	70 e0       	ldi	r23, 0x00	; 0
    5494:	0e 94 f6 16 	call	0x2dec	; 0x2dec <BlockClear>
	BlockClear(120,45);
    5498:	88 e7       	ldi	r24, 0x78	; 120
    549a:	90 e0       	ldi	r25, 0x00	; 0
    549c:	6d e2       	ldi	r22, 0x2D	; 45
    549e:	70 e0       	ldi	r23, 0x00	; 0
    54a0:	0e 94 f6 16 	call	0x2dec	; 0x2dec <BlockClear>
	print_num(120,40,d3);
    54a4:	40 91 e0 00 	lds	r20, 0x00E0
    54a8:	50 91 e1 00 	lds	r21, 0x00E1
    54ac:	88 e7       	ldi	r24, 0x78	; 120
    54ae:	90 e0       	ldi	r25, 0x00	; 0
    54b0:	68 e2       	ldi	r22, 0x28	; 40
    54b2:	70 e0       	ldi	r23, 0x00	; 0
    54b4:	0e 94 aa 14 	call	0x2954	; 0x2954 <print_num>
	print_num(120,45,d2);
    54b8:	40 91 b6 00 	lds	r20, 0x00B6
    54bc:	50 91 b7 00 	lds	r21, 0x00B7
    54c0:	88 e7       	ldi	r24, 0x78	; 120
    54c2:	90 e0       	ldi	r25, 0x00	; 0
    54c4:	6d e2       	ldi	r22, 0x2D	; 45
    54c6:	70 e0       	ldi	r23, 0x00	; 0
    54c8:	0e 94 aa 14 	call	0x2954	; 0x2954 <print_num>
	print_num(120,50,d1);
    54cc:	40 91 94 00 	lds	r20, 0x0094
    54d0:	50 91 95 00 	lds	r21, 0x0095
    54d4:	88 e7       	ldi	r24, 0x78	; 120
    54d6:	90 e0       	ldi	r25, 0x00	; 0
    54d8:	62 e3       	ldi	r22, 0x32	; 50
    54da:	70 e0       	ldi	r23, 0x00	; 0
    54dc:	0e 94 aa 14 	call	0x2954	; 0x2954 <print_num>
	}
	
	if(d3>=0)
    54e0:	80 91 e0 00 	lds	r24, 0x00E0
    54e4:	90 91 e1 00 	lds	r25, 0x00E1
    54e8:	97 fd       	sbrc	r25, 7
    54ea:	24 c0       	rjmp	.+72     	; 0x5534 <main+0x2534>
	{
	BlockClear(120,40);
    54ec:	88 e7       	ldi	r24, 0x78	; 120
    54ee:	90 e0       	ldi	r25, 0x00	; 0
    54f0:	68 e2       	ldi	r22, 0x28	; 40
    54f2:	70 e0       	ldi	r23, 0x00	; 0
    54f4:	0e 94 f6 16 	call	0x2dec	; 0x2dec <BlockClear>
	print_num(120,40,d3);
    54f8:	40 91 e0 00 	lds	r20, 0x00E0
    54fc:	50 91 e1 00 	lds	r21, 0x00E1
    5500:	88 e7       	ldi	r24, 0x78	; 120
    5502:	90 e0       	ldi	r25, 0x00	; 0
    5504:	68 e2       	ldi	r22, 0x28	; 40
    5506:	70 e0       	ldi	r23, 0x00	; 0
    5508:	0e 94 aa 14 	call	0x2954	; 0x2954 <print_num>
	print_num(120,45,d2);
    550c:	40 91 b6 00 	lds	r20, 0x00B6
    5510:	50 91 b7 00 	lds	r21, 0x00B7
    5514:	88 e7       	ldi	r24, 0x78	; 120
    5516:	90 e0       	ldi	r25, 0x00	; 0
    5518:	6d e2       	ldi	r22, 0x2D	; 45
    551a:	70 e0       	ldi	r23, 0x00	; 0
    551c:	0e 94 aa 14 	call	0x2954	; 0x2954 <print_num>
	print_num(120,50,d1);
    5520:	40 91 94 00 	lds	r20, 0x0094
    5524:	50 91 95 00 	lds	r21, 0x0095
    5528:	88 e7       	ldi	r24, 0x78	; 120
    552a:	90 e0       	ldi	r25, 0x00	; 0
    552c:	62 e3       	ldi	r22, 0x32	; 50
    552e:	70 e0       	ldi	r23, 0x00	; 0
    5530:	0e 94 aa 14 	call	0x2954	; 0x2954 <print_num>
	}
	}
	if(time<=0)
    5534:	80 91 c0 00 	lds	r24, 0x00C0
    5538:	90 91 c1 00 	lds	r25, 0x00C1
    553c:	18 16       	cp	r1, r24
    553e:	19 06       	cpc	r1, r25
    5540:	0c f4       	brge	.+2      	; 0x5544 <main+0x2544>
    5542:	f3 c0       	rjmp	.+486    	; 0x572a <main+0x272a>
	{
ks0108ClearScreen();
    5544:	80 e0       	ldi	r24, 0x00	; 0
    5546:	60 e0       	ldi	r22, 0x00	; 0
    5548:	4f e7       	ldi	r20, 0x7F	; 127
    554a:	2f e3       	ldi	r18, 0x3F	; 63
    554c:	00 e0       	ldi	r16, 0x00	; 0
    554e:	0e 94 5d 0d 	call	0x1aba	; 0x1aba <ks0108FillRect>
ks0108GotoXY(10,30);
    5552:	8a e0       	ldi	r24, 0x0A	; 10
    5554:	6e e1       	ldi	r22, 0x1E	; 30
    5556:	0e 94 44 0a 	call	0x1488	; 0x1488 <ks0108GotoXY>
ks0108Puts_P(PSTR("!!!..Game Over..!!!"));
    555a:	88 ef       	ldi	r24, 0xF8	; 248
    555c:	91 e1       	ldi	r25, 0x11	; 17
    555e:	0e 94 38 0c 	call	0x1870	; 0x1870 <ks0108Puts_P>
    5562:	88 ea       	ldi	r24, 0xA8	; 168
    5564:	91 e6       	ldi	r25, 0x61	; 97
    5566:	01 97       	sbiw	r24, 0x01	; 1
    5568:	f1 f7       	brne	.-4      	; 0x5566 <main+0x2566>
_delay_ms(100);
ks0108ClearScreen();
    556a:	80 e0       	ldi	r24, 0x00	; 0
    556c:	60 e0       	ldi	r22, 0x00	; 0
    556e:	4f e7       	ldi	r20, 0x7F	; 127
    5570:	2f e3       	ldi	r18, 0x3F	; 63
    5572:	0e 94 5d 0d 	call	0x1aba	; 0x1aba <ks0108FillRect>
//PRINT SCORE
	
	ks0108GotoXY(15,20);
    5576:	8f e0       	ldi	r24, 0x0F	; 15
    5578:	64 e1       	ldi	r22, 0x14	; 20
    557a:	0e 94 44 0a 	call	0x1488	; 0x1488 <ks0108GotoXY>
	ks0108Puts_P(PSTR("Score -"));
    557e:	80 ef       	ldi	r24, 0xF0	; 240
    5580:	91 e1       	ldi	r25, 0x11	; 17
    5582:	0e 94 38 0c 	call	0x1870	; 0x1870 <ks0108Puts_P>
	ks0108GotoXY(70,20);
    5586:	86 e4       	ldi	r24, 0x46	; 70
    5588:	64 e1       	ldi	r22, 0x14	; 20
    558a:	0e 94 44 0a 	call	0x1488	; 0x1488 <ks0108GotoXY>
	itoa(Fscore,a,10);
    558e:	80 91 6f 00 	lds	r24, 0x006F
    5592:	90 91 70 00 	lds	r25, 0x0070
    5596:	60 ed       	ldi	r22, 0xD0	; 208
    5598:	70 e0       	ldi	r23, 0x00	; 0
    559a:	4a e0       	ldi	r20, 0x0A	; 10
    559c:	50 e0       	ldi	r21, 0x00	; 0
    559e:	0e 94 ce 2b 	call	0x579c	; 0x579c <itoa>
	ks0108Puts(a);
    55a2:	80 ed       	ldi	r24, 0xD0	; 208
    55a4:	90 e0       	ldi	r25, 0x00	; 0
    55a6:	0e 94 60 0c 	call	0x18c0	; 0x18c0 <ks0108Puts>
    55aa:	80 e4       	ldi	r24, 0x40	; 64
    55ac:	9f e1       	ldi	r25, 0x1F	; 31
    55ae:	f6 01       	movw	r30, r12
    55b0:	31 97       	sbiw	r30, 0x01	; 1
    55b2:	f1 f7       	brne	.-4      	; 0x55b0 <main+0x25b0>
		{
			// wait 1/10 ms
			_delay_loop_2(((F_CPU) / 4e3) / 10);
			__ticks --;
    55b4:	01 97       	sbiw	r24, 0x01	; 1
		__ticks = 1;
	else if (__tmp > 65535)
	{
		//	__ticks = requested delay in 1/10 ms
		__ticks = (uint16_t) (__ms * 10.0);
		while(__ticks)
    55b6:	d9 f7       	brne	.-10     	; 0x55ae <main+0x25ae>
	_delay_ms(800);
	ks0108ClearScreen();
    55b8:	80 e0       	ldi	r24, 0x00	; 0
    55ba:	60 e0       	ldi	r22, 0x00	; 0
    55bc:	4f e7       	ldi	r20, 0x7F	; 127
    55be:	2f e3       	ldi	r18, 0x3F	; 63
    55c0:	00 e0       	ldi	r16, 0x00	; 0
    55c2:	0e 94 5d 0d 	call	0x1aba	; 0x1aba <ks0108FillRect>

	
	if(Fscore>=high_score1)
    55c6:	40 91 6f 00 	lds	r20, 0x006F
    55ca:	50 91 70 00 	lds	r21, 0x0070
    55ce:	20 91 63 00 	lds	r18, 0x0063
    55d2:	30 91 64 00 	lds	r19, 0x0064
    55d6:	42 17       	cp	r20, r18
    55d8:	53 07       	cpc	r21, r19
    55da:	64 f1       	brlt	.+88     	; 0x5634 <main+0x2634>
	{
	high_score3=high_score2;
    55dc:	80 91 65 00 	lds	r24, 0x0065
    55e0:	90 91 66 00 	lds	r25, 0x0066
    55e4:	90 93 6e 00 	sts	0x006E, r25
    55e8:	80 93 6d 00 	sts	0x006D, r24
	high_score2=high_score1;
    55ec:	30 93 66 00 	sts	0x0066, r19
    55f0:	20 93 65 00 	sts	0x0065, r18
	high_score1=Fscore;
    55f4:	50 93 64 00 	sts	0x0064, r21
    55f8:	40 93 63 00 	sts	0x0063, r20
	ks0108ClearScreen();
    55fc:	80 e0       	ldi	r24, 0x00	; 0
    55fe:	60 e0       	ldi	r22, 0x00	; 0
    5600:	4f e7       	ldi	r20, 0x7F	; 127
    5602:	2f e3       	ldi	r18, 0x3F	; 63
    5604:	0e 94 5d 0d 	call	0x1aba	; 0x1aba <ks0108FillRect>
	ks0108GotoXY(15,25);
    5608:	8f e0       	ldi	r24, 0x0F	; 15
    560a:	69 e1       	ldi	r22, 0x19	; 25
    560c:	0e 94 44 0a 	call	0x1488	; 0x1488 <ks0108GotoXY>
	ks0108Puts_P(PSTR("!!!!HIGH SCORE!!!!"));
    5610:	8d ed       	ldi	r24, 0xDD	; 221
    5612:	91 e1       	ldi	r25, 0x11	; 17
    5614:	0e 94 38 0c 	call	0x1870	; 0x1870 <ks0108Puts_P>
    5618:	88 e8       	ldi	r24, 0x88	; 136
    561a:	93 e1       	ldi	r25, 0x13	; 19
    561c:	f6 01       	movw	r30, r12
    561e:	31 97       	sbiw	r30, 0x01	; 1
    5620:	f1 f7       	brne	.-4      	; 0x561e <main+0x261e>
		{
			// wait 1/10 ms
			_delay_loop_2(((F_CPU) / 4e3) / 10);
			__ticks --;
    5622:	01 97       	sbiw	r24, 0x01	; 1
		__ticks = 1;
	else if (__tmp > 65535)
	{
		//	__ticks = requested delay in 1/10 ms
		__ticks = (uint16_t) (__ms * 10.0);
		while(__ticks)
    5624:	d9 f7       	brne	.-10     	; 0x561c <main+0x261c>
	_delay_ms(500);
	ks0108ClearScreen();
    5626:	80 e0       	ldi	r24, 0x00	; 0
    5628:	60 e0       	ldi	r22, 0x00	; 0
    562a:	4f e7       	ldi	r20, 0x7F	; 127
    562c:	2f e3       	ldi	r18, 0x3F	; 63
    562e:	00 e0       	ldi	r16, 0x00	; 0
    5630:	0e 94 5d 0d 	call	0x1aba	; 0x1aba <ks0108FillRect>
	}
	 if(Fscore>=high_score2 && Fscore< high_score1)
    5634:	20 91 6f 00 	lds	r18, 0x006F
    5638:	30 91 70 00 	lds	r19, 0x0070
    563c:	40 91 65 00 	lds	r20, 0x0065
    5640:	50 91 66 00 	lds	r21, 0x0066
    5644:	24 17       	cp	r18, r20
    5646:	35 07       	cpc	r19, r21
    5648:	64 f1       	brlt	.+88     	; 0x56a2 <main+0x26a2>
    564a:	80 91 63 00 	lds	r24, 0x0063
    564e:	90 91 64 00 	lds	r25, 0x0064
    5652:	28 17       	cp	r18, r24
    5654:	39 07       	cpc	r19, r25
    5656:	2c f5       	brge	.+74     	; 0x56a2 <main+0x26a2>
	{
	high_score3=high_score2;
    5658:	50 93 6e 00 	sts	0x006E, r21
    565c:	40 93 6d 00 	sts	0x006D, r20
	high_score2=Fscore;
    5660:	30 93 66 00 	sts	0x0066, r19
    5664:	20 93 65 00 	sts	0x0065, r18
	ks0108ClearScreen();
    5668:	80 e0       	ldi	r24, 0x00	; 0
    566a:	60 e0       	ldi	r22, 0x00	; 0
    566c:	4f e7       	ldi	r20, 0x7F	; 127
    566e:	2f e3       	ldi	r18, 0x3F	; 63
    5670:	00 e0       	ldi	r16, 0x00	; 0
    5672:	0e 94 5d 0d 	call	0x1aba	; 0x1aba <ks0108FillRect>
	ks0108GotoXY(15,25);
    5676:	8f e0       	ldi	r24, 0x0F	; 15
    5678:	69 e1       	ldi	r22, 0x19	; 25
    567a:	0e 94 44 0a 	call	0x1488	; 0x1488 <ks0108GotoXY>
	ks0108Puts_P(PSTR("!!!!HIGH SCORE!!!!"));
    567e:	8a ec       	ldi	r24, 0xCA	; 202
    5680:	91 e1       	ldi	r25, 0x11	; 17
    5682:	0e 94 38 0c 	call	0x1870	; 0x1870 <ks0108Puts_P>
    5686:	88 e8       	ldi	r24, 0x88	; 136
    5688:	93 e1       	ldi	r25, 0x13	; 19
    568a:	f6 01       	movw	r30, r12
    568c:	31 97       	sbiw	r30, 0x01	; 1
    568e:	f1 f7       	brne	.-4      	; 0x568c <main+0x268c>
		{
			// wait 1/10 ms
			_delay_loop_2(((F_CPU) / 4e3) / 10);
			__ticks --;
    5690:	01 97       	sbiw	r24, 0x01	; 1
		__ticks = 1;
	else if (__tmp > 65535)
	{
		//	__ticks = requested delay in 1/10 ms
		__ticks = (uint16_t) (__ms * 10.0);
		while(__ticks)
    5692:	d9 f7       	brne	.-10     	; 0x568a <main+0x268a>
	_delay_ms(500);
	ks0108ClearScreen();
    5694:	80 e0       	ldi	r24, 0x00	; 0
    5696:	60 e0       	ldi	r22, 0x00	; 0
    5698:	4f e7       	ldi	r20, 0x7F	; 127
    569a:	2f e3       	ldi	r18, 0x3F	; 63
    569c:	00 e0       	ldi	r16, 0x00	; 0
    569e:	0e 94 5d 0d 	call	0x1aba	; 0x1aba <ks0108FillRect>
	}
	if(Fscore>=high_score3 && Fscore<high_score2 && Fscore<high_score1)
    56a2:	20 91 6f 00 	lds	r18, 0x006F
    56a6:	30 91 70 00 	lds	r19, 0x0070
    56aa:	80 91 6d 00 	lds	r24, 0x006D
    56ae:	90 91 6e 00 	lds	r25, 0x006E
    56b2:	28 17       	cp	r18, r24
    56b4:	39 07       	cpc	r19, r25
    56b6:	7c f1       	brlt	.+94     	; 0x5716 <main+0x2716>
    56b8:	80 91 65 00 	lds	r24, 0x0065
    56bc:	90 91 66 00 	lds	r25, 0x0066
    56c0:	28 17       	cp	r18, r24
    56c2:	39 07       	cpc	r19, r25
    56c4:	44 f5       	brge	.+80     	; 0x5716 <main+0x2716>
    56c6:	80 91 63 00 	lds	r24, 0x0063
    56ca:	90 91 64 00 	lds	r25, 0x0064
    56ce:	28 17       	cp	r18, r24
    56d0:	39 07       	cpc	r19, r25
    56d2:	0c f5       	brge	.+66     	; 0x5716 <main+0x2716>
	{
	high_score3=Fscore;
    56d4:	30 93 6e 00 	sts	0x006E, r19
    56d8:	20 93 6d 00 	sts	0x006D, r18
	ks0108ClearScreen();
    56dc:	80 e0       	ldi	r24, 0x00	; 0
    56de:	60 e0       	ldi	r22, 0x00	; 0
    56e0:	4f e7       	ldi	r20, 0x7F	; 127
    56e2:	2f e3       	ldi	r18, 0x3F	; 63
    56e4:	00 e0       	ldi	r16, 0x00	; 0
    56e6:	0e 94 5d 0d 	call	0x1aba	; 0x1aba <ks0108FillRect>
	ks0108GotoXY(15,25);
    56ea:	8f e0       	ldi	r24, 0x0F	; 15
    56ec:	69 e1       	ldi	r22, 0x19	; 25
    56ee:	0e 94 44 0a 	call	0x1488	; 0x1488 <ks0108GotoXY>
	ks0108Puts_P(PSTR("!!!!HIGH SCORE!!!!"));
    56f2:	87 eb       	ldi	r24, 0xB7	; 183
    56f4:	91 e1       	ldi	r25, 0x11	; 17
    56f6:	0e 94 38 0c 	call	0x1870	; 0x1870 <ks0108Puts_P>
    56fa:	88 e8       	ldi	r24, 0x88	; 136
    56fc:	93 e1       	ldi	r25, 0x13	; 19
    56fe:	f6 01       	movw	r30, r12
    5700:	31 97       	sbiw	r30, 0x01	; 1
    5702:	f1 f7       	brne	.-4      	; 0x5700 <main+0x2700>
		{
			// wait 1/10 ms
			_delay_loop_2(((F_CPU) / 4e3) / 10);
			__ticks --;
    5704:	01 97       	sbiw	r24, 0x01	; 1
		__ticks = 1;
	else if (__tmp > 65535)
	{
		//	__ticks = requested delay in 1/10 ms
		__ticks = (uint16_t) (__ms * 10.0);
		while(__ticks)
    5706:	d9 f7       	brne	.-10     	; 0x56fe <main+0x26fe>
	_delay_ms(500);
	ks0108ClearScreen();
    5708:	80 e0       	ldi	r24, 0x00	; 0
    570a:	60 e0       	ldi	r22, 0x00	; 0
    570c:	4f e7       	ldi	r20, 0x7F	; 127
    570e:	2f e3       	ldi	r18, 0x3F	; 63
    5710:	00 e0       	ldi	r16, 0x00	; 0
    5712:	0e 94 5d 0d 	call	0x1aba	; 0x1aba <ks0108FillRect>
	}

 Fscore=0;
    5716:	10 92 70 00 	sts	0x0070, r1
    571a:	10 92 6f 00 	sts	0x006F, r1
//_delay_ms(15);

	level=0;
    571e:	10 92 7a 00 	sts	0x007A, r1
    5722:	10 92 79 00 	sts	0x0079, r1
	menu();
    5726:	0e 94 2d 17 	call	0x2e5a	; 0x2e5a <menu>
	}

  // _delay_ms(75);
  test_time++;
    572a:	80 91 9a 00 	lds	r24, 0x009A
    572e:	90 91 9b 00 	lds	r25, 0x009B
    5732:	01 96       	adiw	r24, 0x01	; 1
    5734:	90 93 9b 00 	sts	0x009B, r25
    5738:	80 93 9a 00 	sts	0x009A, r24
    time=100;
	test_time=0;
	d1=0;
	d2=0;
	d3=0;
while(level==3)
    573c:	80 91 79 00 	lds	r24, 0x0079
    5740:	90 91 7a 00 	lds	r25, 0x007A
    5744:	03 97       	sbiw	r24, 0x03	; 3
    5746:	11 f0       	breq	.+4      	; 0x574c <main+0x274c>
    5748:	0c 94 37 18 	jmp	0x306e	; 0x306e <main+0x6e>
    574c:	49 c8       	rjmp	.-3950   	; 0x47e0 <main+0x17e0>

0000574e <__divmodhi4>:
    574e:	97 fb       	bst	r25, 7
    5750:	09 2e       	mov	r0, r25
    5752:	07 26       	eor	r0, r23
    5754:	0a d0       	rcall	.+20     	; 0x576a <__divmodhi4_neg1>
    5756:	77 fd       	sbrc	r23, 7
    5758:	04 d0       	rcall	.+8      	; 0x5762 <__divmodhi4_neg2>
    575a:	0c d0       	rcall	.+24     	; 0x5774 <__udivmodhi4>
    575c:	06 d0       	rcall	.+12     	; 0x576a <__divmodhi4_neg1>
    575e:	00 20       	and	r0, r0
    5760:	1a f4       	brpl	.+6      	; 0x5768 <__divmodhi4_exit>

00005762 <__divmodhi4_neg2>:
    5762:	70 95       	com	r23
    5764:	61 95       	neg	r22
    5766:	7f 4f       	sbci	r23, 0xFF	; 255

00005768 <__divmodhi4_exit>:
    5768:	08 95       	ret

0000576a <__divmodhi4_neg1>:
    576a:	f6 f7       	brtc	.-4      	; 0x5768 <__divmodhi4_exit>
    576c:	90 95       	com	r25
    576e:	81 95       	neg	r24
    5770:	9f 4f       	sbci	r25, 0xFF	; 255
    5772:	08 95       	ret

00005774 <__udivmodhi4>:
    5774:	aa 1b       	sub	r26, r26
    5776:	bb 1b       	sub	r27, r27
    5778:	51 e1       	ldi	r21, 0x11	; 17
    577a:	07 c0       	rjmp	.+14     	; 0x578a <__udivmodhi4_ep>

0000577c <__udivmodhi4_loop>:
    577c:	aa 1f       	adc	r26, r26
    577e:	bb 1f       	adc	r27, r27
    5780:	a6 17       	cp	r26, r22
    5782:	b7 07       	cpc	r27, r23
    5784:	10 f0       	brcs	.+4      	; 0x578a <__udivmodhi4_ep>
    5786:	a6 1b       	sub	r26, r22
    5788:	b7 0b       	sbc	r27, r23

0000578a <__udivmodhi4_ep>:
    578a:	88 1f       	adc	r24, r24
    578c:	99 1f       	adc	r25, r25
    578e:	5a 95       	dec	r21
    5790:	a9 f7       	brne	.-22     	; 0x577c <__udivmodhi4_loop>
    5792:	80 95       	com	r24
    5794:	90 95       	com	r25
    5796:	bc 01       	movw	r22, r24
    5798:	cd 01       	movw	r24, r26
    579a:	08 95       	ret

0000579c <itoa>:
    579c:	fb 01       	movw	r30, r22
    579e:	9f 01       	movw	r18, r30
    57a0:	e8 94       	clt
    57a2:	42 30       	cpi	r20, 0x02	; 2
    57a4:	c4 f0       	brlt	.+48     	; 0x57d6 <itoa+0x3a>
    57a6:	45 32       	cpi	r20, 0x25	; 37
    57a8:	b4 f4       	brge	.+44     	; 0x57d6 <itoa+0x3a>
    57aa:	4a 30       	cpi	r20, 0x0A	; 10
    57ac:	29 f4       	brne	.+10     	; 0x57b8 <itoa+0x1c>
    57ae:	97 fb       	bst	r25, 7
    57b0:	1e f4       	brtc	.+6      	; 0x57b8 <itoa+0x1c>
    57b2:	90 95       	com	r25
    57b4:	81 95       	neg	r24
    57b6:	9f 4f       	sbci	r25, 0xFF	; 255
    57b8:	64 2f       	mov	r22, r20
    57ba:	77 27       	eor	r23, r23
    57bc:	0e 94 ba 2b 	call	0x5774	; 0x5774 <__udivmodhi4>
    57c0:	80 5d       	subi	r24, 0xD0	; 208
    57c2:	8a 33       	cpi	r24, 0x3A	; 58
    57c4:	0c f0       	brlt	.+2      	; 0x57c8 <itoa+0x2c>
    57c6:	89 5d       	subi	r24, 0xD9	; 217
    57c8:	81 93       	st	Z+, r24
    57ca:	cb 01       	movw	r24, r22
    57cc:	00 97       	sbiw	r24, 0x00	; 0
    57ce:	a1 f7       	brne	.-24     	; 0x57b8 <itoa+0x1c>
    57d0:	16 f4       	brtc	.+4      	; 0x57d6 <itoa+0x3a>
    57d2:	5d e2       	ldi	r21, 0x2D	; 45
    57d4:	51 93       	st	Z+, r21
    57d6:	10 82       	st	Z, r1
    57d8:	c9 01       	movw	r24, r18
    57da:	0c 94 ef 2b 	jmp	0x57de	; 0x57de <strrev>

000057de <strrev>:
    57de:	dc 01       	movw	r26, r24
    57e0:	fc 01       	movw	r30, r24
    57e2:	67 2f       	mov	r22, r23
    57e4:	71 91       	ld	r23, Z+
    57e6:	77 23       	and	r23, r23
    57e8:	e1 f7       	brne	.-8      	; 0x57e2 <strrev+0x4>
    57ea:	32 97       	sbiw	r30, 0x02	; 2
    57ec:	04 c0       	rjmp	.+8      	; 0x57f6 <strrev+0x18>
    57ee:	7c 91       	ld	r23, X
    57f0:	6d 93       	st	X+, r22
    57f2:	70 83       	st	Z, r23
    57f4:	62 91       	ld	r22, -Z
    57f6:	ae 17       	cp	r26, r30
    57f8:	bf 07       	cpc	r27, r31
    57fa:	c8 f3       	brcs	.-14     	; 0x57ee <strrev+0x10>
    57fc:	08 95       	ret

000057fe <_exit>:
    57fe:	f8 94       	cli

00005800 <__stop_program>:
    5800:	ff cf       	rjmp	.-2      	; 0x5800 <__stop_program>
